(dp0
V\u5e02\u573a\u4e0e\u9500\u552e
p1
(lp2
V\u5e02\u573a\u63a8\u5e7f
p3
aV\u5e02\u573a\u603b\u76d1
p4
aV\u5e02\u573a\u7b56\u5212
p5
aVBD
p6
aV\u9500\u552e\u603b\u76d1
p7
aV\u5e02\u573a\u8425\u9500
p8
aV\u5e02\u573a\u7b56\u5212
p9
aV\u5e02\u573a\u987e\u95ee
p10
aV\u5e02\u573a\u8425\u9500
p11
aV\u5e02\u573a\u63a8\u5e7f
p12
aVSEO
p13
aVSEM
p14
aV\u5546\u52a1\u6e20\u9053
p15
aV\u5546\u4e1a\u6570\u636e\u5206\u6790
p16
aV\u6d3b\u52a8\u7b56\u5212
p17
aV\u7f51\u7edc\u8425\u9500
p18
aV\u6d77\u5916\u5e02\u573a
p19
aV\u653f\u5e9c\u5173\u7cfb
p20
aV\u516c\u5173
p21
aV\u5a92\u4ecb\u7ecf\u7406
p22
aV\u5e7f\u544a\u534f\u8c03
p23
aV\u54c1\u724c\u516c\u5173
p24
aV\u9500\u552e
p25
aV\u9500\u552e\u4e13\u5458
p26
aV\u9500\u552e\u7ecf\u7406
p27
aV\u5ba2\u6237\u4ee3\u8868
p28
aV\u5927\u5ba2\u6237\u4ee3\u8868
p29
aVBD\u7ecf\u7406
p30
aV\u5546\u52a1\u6e20\u9053
p31
aV\u6e20\u9053\u9500\u552e
p32
aV\u4ee3\u7406\u5546\u9500\u552e
p33
aV\u9500\u552e\u52a9\u7406
p34
aV\u7535\u8bdd\u9500\u552e
p35
aV\u9500\u552e\u987e\u95ee
p36
aV\u5546\u54c1\u7ecf\u7406
p37
aV\u9ad8\u7aef\u804c\u4f4d
p38
aV\u5e02\u573a\u603b\u76d1
p39
aV\u9500\u552e\u603b\u76d1
p40
aV\u5546\u52a1\u603b\u76d1
p41
aVCMO
p42
aV\u516c\u5173\u603b\u76d1
p43
aV\u91c7\u8d2d\u603b\u76d1
p44
aV\u6295\u8d44\u603b\u76d1
p45
aV\u4f9b\u5e94\u94fe
p46
aV\u7269\u6d41
p47
aV\u4ed3\u50a8
p48
aV\u91c7\u8d2d
p49
aV\u91c7\u8d2d\u4e13\u5458
p50
aV\u91c7\u8d2d\u7ecf\u7406
p51
aV\u5546\u54c1\u7ecf\u7406
p52
aV\u6295\u8d44
p53
aV\u5206\u6790\u5e08
p54
aV\u6295\u8d44\u987e\u95ee
p55
aV\u6295\u8d44\u7ecf\u7406
p56
asV\u6280\u672f
p57
(lp58
VJava
p59
aVPHP
p60
aVC
p61
aVC++
p62
aVAndroid
p63
aViOS
p64
aV\u6d4b\u8bd5
p65
aV\u524d\u7aef\u5f00\u53d1
p66
aV\u6280\u672f\u7ecf\u7406
p67
aV\u6280\u672f\u603b\u76d1
p68
aV\u67b6\u6784\u5e08
p69
aVCTO
p70
aV\u540e\u7aef\u5f00\u53d1
p71
aVJava
p72
aVPython
p73
aVPHP
p74
aV.NET
p75
aVC#
p76
aVC++
p77
aVC
p78
aVVB
p79
aVDelphi
p80
aVPerl
p81
aVRuby
p82
aVHadoop
p83
aVNode.js
p84
aV\u6570\u636e\u6316\u6398
p85
aV\u81ea\u7136\u8bed\u8a00\u5904\u7406
p86
aV\u641c\u7d22\u7b97\u6cd5
p87
aV\u7cbe\u51c6\u63a8\u8350
p88
aV\u5168\u6808\u5de5\u7a0b\u5e08
p89
aVGo
p90
aVASP
p91
aVShell
p92
aV\u540e\u7aef\u5f00\u53d1\u5176\u5b83
p93
aV\u79fb\u52a8\u5f00\u53d1
p94
aVHTML5
p95
aVAndroid
p96
aViOS
p97
aVWP
p98
aV\u79fb\u52a8\u5f00\u53d1\u5176\u5b83
p99
aV\u524d\u7aef\u5f00\u53d1
p100
aVweb\u524d\u7aef
p101
aVFlash
p102
aVhtml5
p103
aVJavaScript
p104
aVU3D
p105
aVCOCOS2D-X
p106
aV\u524d\u7aef\u5f00\u53d1\u5176\u5b83
p107
aV\u6d4b\u8bd5
p108
aV\u6d4b\u8bd5\u5de5\u7a0b\u5e08
p109
aV\u81ea\u52a8\u5316\u6d4b\u8bd5
p110
aV\u529f\u80fd\u6d4b\u8bd5
p111
aV\u6027\u80fd\u6d4b\u8bd5
p112
aV\u6d4b\u8bd5\u5f00\u53d1
p113
aV\u6e38\u620f\u6d4b\u8bd5
p114
aV\u767d\u76d2\u6d4b\u8bd5
p115
aV\u7070\u76d2\u6d4b\u8bd5
p116
aV\u9ed1\u76d2\u6d4b\u8bd5
p117
aV\u624b\u673a\u6d4b\u8bd5
p118
aV\u786c\u4ef6\u6d4b\u8bd5
p119
aV\u6d4b\u8bd5\u7ecf\u7406
p120
aV\u6d4b\u8bd5\u5176\u5b83
p121
aV\u8fd0\u7ef4
p122
aV\u8fd0\u7ef4\u5de5\u7a0b\u5e08
p123
aV\u8fd0\u7ef4\u5f00\u53d1\u5de5\u7a0b\u5e08
p124
aV\u7f51\u7edc\u5de5\u7a0b\u5e08
p125
aV\u7cfb\u7edf\u5de5\u7a0b\u5e08
p126
aVIT\u652f\u6301
p127
aVIDC
p128
aVCDN
p129
aVF5
p130
aV\u7cfb\u7edf\u7ba1\u7406\u5458
p131
aV\u75c5\u6bd2\u5206\u6790
p132
aVWEB\u5b89\u5168
p133
aV\u7f51\u7edc\u5b89\u5168
p134
aV\u7cfb\u7edf\u5b89\u5168
p135
aV\u8fd0\u7ef4\u7ecf\u7406
p136
aV\u8fd0\u7ef4\u5176\u5b83
p137
aVDBA
p138
aVMySQL
p139
aVSQLServer
p140
aVOracle
p141
aVDB2
p142
aVMongoDB
p143
aVETL
p144
aVHive
p145
aV\u6570\u636e\u4ed3\u5e93
p146
aVDBA\u5176\u5b83
p147
aV\u9ad8\u7aef\u804c\u4f4d
p148
aV\u6280\u672f\u7ecf\u7406
p149
aV\u6280\u672f\u603b\u76d1
p150
aV\u67b6\u6784\u5e08
p151
aVCTO
p152
aV\u8fd0\u7ef4\u603b\u76d1
p153
aV\u6280\u672f\u5408\u4f19\u4eba
p154
aV\u9879\u76ee\u603b\u76d1
p155
aV\u6d4b\u8bd5\u603b\u76d1
p156
aV\u5b89\u5168\u4e13\u5bb6
p157
aV\u9ad8\u7aef\u6280\u672f\u804c\u4f4d\u5176\u5b83
p158
aV\u9879\u76ee\u7ba1\u7406
p159
aV\u9879\u76ee\u7ecf\u7406
p160
aV\u9879\u76ee\u52a9\u7406
p161
aV\u786c\u4ef6\u5f00\u53d1
p162
aV\u786c\u4ef6
p163
aV\u5d4c\u5165\u5f0f
p164
aV\u81ea\u52a8\u5316
p165
aV\u5355\u7247\u673a
p166
aV\u7535\u8def\u8bbe\u8ba1
p167
aV\u9a71\u52a8\u5f00\u53d1
p168
aV\u7cfb\u7edf\u96c6\u6210
p169
aVFPGA\u5f00\u53d1
p170
aVDSP\u5f00\u53d1
p171
aVARM\u5f00\u53d1
p172
aVPCB\u5de5\u827a
p173
aV\u6a21\u5177\u8bbe\u8ba1
p174
aV\u70ed\u4f20\u5bfc
p175
aV\u6750\u6599\u5de5\u7a0b\u5e08
p176
aV\u7cbe\u76ca\u5de5\u7a0b\u5e08
p177
aV\u5c04\u9891\u5de5\u7a0b\u5e08
p178
aV\u786c\u4ef6\u5f00\u53d1\u5176\u5b83
p179
aV\u4f01\u4e1a\u8f6f\u4ef6
p180
aV\u5b9e\u65bd\u5de5\u7a0b\u5e08
p181
aV\u552e\u524d\u5de5\u7a0b\u5e08
p182
aV\u552e\u540e\u5de5\u7a0b\u5e08
p183
aVBI\u5de5\u7a0b\u5e08
p184
aV\u4f01\u4e1a\u8f6f\u4ef6\u5176\u5b83
p185
asV\u8bbe\u8ba1\u000a                                                            \u62c9\u52fe\u5f62\u8c61\u5f81\u96c6
p186
(lp187
V\u8bbe\u8ba1\u603b\u76d1
p188
aVUI
p189
aVUE
p190
aV\u4ea4\u4e92\u8bbe\u8ba1
p191
aV\u6570\u636e\u5206\u6790
p192
aV\u89c6\u89c9\u8bbe\u8ba1
p193
aV\u7f51\u9875\u8bbe\u8ba1\u5e08
p194
aVFlash\u8bbe\u8ba1\u5e08
p195
aVAPP\u8bbe\u8ba1\u5e08
p196
aVUI\u8bbe\u8ba1\u5e08
p197
aV\u5e73\u9762\u8bbe\u8ba1\u5e08
p198
aV\u7f8e\u672f\u8bbe\u8ba1\u5e08\uff082D3D\uff09
p199
aV\u5e7f\u544a\u8bbe\u8ba1\u5e08
p200
aV\u591a\u5a92\u4f53\u8bbe\u8ba1\u5e08
p201
aV\u539f\u753b\u5e08
p202
aV\u6e38\u620f\u7279\u6548
p203
aV\u6e38\u620f\u754c\u9762\u8bbe\u8ba1\u5e08
p204
aV\u89c6\u89c9\u8bbe\u8ba1\u5e08
p205
aV\u6e38\u620f\u573a\u666f
p206
aV\u6e38\u620f\u89d2\u8272
p207
aV\u6e38\u620f\u52a8\u4f5c
p208
aV\u7528\u6237\u7814\u7a76
p209
aV\u6570\u636e\u5206\u6790\u5e08
p210
aV\u7528\u6237\u7814\u7a76\u5458
p211
aV\u6e38\u620f\u6570\u503c\u7b56\u5212
p212
aV\u9ad8\u7aef\u804c\u4f4d
p213
aV\u8bbe\u8ba1\u7ecf\u7406\u4e3b\u7ba1
p214
aV\u8bbe\u8ba1\u603b\u76d1
p215
aV\u89c6\u89c9\u8bbe\u8ba1\u7ecf\u7406\u4e3b\u7ba1
p216
aV\u89c6\u89c9\u8bbe\u8ba1\u603b\u76d1
p217
aV\u4ea4\u4e92\u8bbe\u8ba1\u7ecf\u7406\u4e3b\u7ba1
p218
aV\u4ea4\u4e92\u8bbe\u8ba1\u603b\u76d1
p219
aV\u7528\u6237\u7814\u7a76\u7ecf\u7406\u4e3b\u7ba1
p220
aV\u7528\u6237\u7814\u7a76\u603b\u76d1
p221
aV\u4ea4\u4e92\u8bbe\u8ba1
p222
aV\u7f51\u9875\u4ea4\u4e92\u8bbe\u8ba1\u5e08
p223
aV\u4ea4\u4e92\u8bbe\u8ba1\u5e08
p224
aV\u65e0\u7ebf\u4ea4\u4e92\u8bbe\u8ba1\u5e08
p225
aV\u786c\u4ef6\u4ea4\u4e92\u8bbe\u8ba1\u5e08
p226
asV\u4ea7\u54c1
p227
(lp228
V\u4ea7\u54c1\u603b\u76d1
p229
aV\u4ea7\u54c1\u7ecf\u7406
p230
aV\u79fb\u52a8\u4ea7\u54c1\u7ecf\u7406
p231
aV\u6e38\u620f\u7b56\u5212
p232
aV\u4ea7\u54c1\u7ecf\u7406
p233
aV\u4ea7\u54c1\u7ecf\u7406
p234
aV\u7f51\u9875\u4ea7\u54c1\u7ecf\u7406
p235
aV\u79fb\u52a8\u4ea7\u54c1\u7ecf\u7406
p236
aV\u4ea7\u54c1\u52a9\u7406
p237
aV\u6570\u636e\u4ea7\u54c1\u7ecf\u7406
p238
aV\u7535\u5546\u4ea7\u54c1\u7ecf\u7406
p239
aV\u6e38\u620f\u7b56\u5212
p240
aV\u4ea7\u54c1\u5b9e\u4e60\u751f
p241
aV\u4ea7\u54c1\u8bbe\u8ba1\u5e08
p242
aV\u7f51\u9875\u4ea7\u54c1\u8bbe\u8ba1\u5e08
p243
aV\u65e0\u7ebf\u4ea7\u54c1\u8bbe\u8ba1\u5e08
p244
aV\u9ad8\u7aef\u804c\u4f4d
p245
aV\u4ea7\u54c1\u90e8\u7ecf\u7406
p246
aV\u4ea7\u54c1\u603b\u76d1
p247
aV\u6e38\u620f\u5236\u4f5c\u4eba
p248
asV\u8fd0\u8425
p249
(lp250
V\u65b0\u5a92\u4f53\u8fd0\u8425
p251
aV\u6570\u636e\u8fd0\u8425
p252
aV\u8fd0\u8425\u603b\u76d1
p253
aVCOO
p254
aV\u7f16\u8f91
p255
aV\u8fd0\u8425
p256
aV\u5185\u5bb9\u8fd0\u8425
p257
aV\u4ea7\u54c1\u8fd0\u8425
p258
aV\u6570\u636e\u8fd0\u8425
p259
aV\u7528\u6237\u8fd0\u8425
p260
aV\u6d3b\u52a8\u8fd0\u8425
p261
aV\u5546\u5bb6\u8fd0\u8425
p262
aV\u54c1\u7c7b\u8fd0\u8425
p263
aV\u6e38\u620f\u8fd0\u8425
p264
aV\u7f51\u7edc\u63a8\u5e7f
p265
aV\u8fd0\u8425\u4e13\u5458
p266
aV\u7f51\u5e97\u8fd0\u8425
p267
aV\u65b0\u5a92\u4f53\u8fd0\u8425
p268
aV\u6d77\u5916\u8fd0\u8425
p269
aV\u8fd0\u8425\u7ecf\u7406
p270
aV\u7f16\u8f91
p271
aV\u526f\u4e3b\u7f16
p272
aV\u5185\u5bb9\u7f16\u8f91
p273
aV\u6587\u6848\u7b56\u5212
p274
aV\u8bb0\u8005
p275
aV\u5ba2\u670d
p276
aV\u552e\u524d\u54a8\u8be2
p277
aV\u552e\u540e\u5ba2\u670d
p278
aV\u6dd8\u5b9d\u5ba2\u670d
p279
aV\u5ba2\u670d\u7ecf\u7406
p280
aV\u9ad8\u7aef\u804c\u4f4d
p281
aV\u4e3b\u7f16
p282
aV\u8fd0\u8425\u603b\u76d1
p283
aVCOO
p284
aV\u5ba2\u670d\u603b\u76d1
p285
asV\u804c\u80fd
p286
(lp287
VHR
p288
aV\u884c\u653f
p289
aV\u4f1a\u8ba1
p290
aV\u51fa\u7eb3
p291
aV\u4eba\u529b\u8d44\u6e90
p292
aV\u4eba\u4e8bHR
p293
aV\u57f9\u8bad\u7ecf\u7406
p294
aV\u85aa\u8d44\u798f\u5229\u7ecf\u7406
p295
aV\u7ee9\u6548\u8003\u6838\u7ecf\u7406
p296
aV\u4eba\u529b\u8d44\u6e90
p297
aV\u62db\u8058
p298
aVHRBP
p299
aV\u5458\u5de5\u5173\u7cfb
p300
aV\u884c\u653f
p301
aV\u52a9\u7406
p302
aV\u524d\u53f0
p303
aV\u884c\u653f
p304
aV\u603b\u52a9
p305
aV\u6587\u79d8
p306
aV\u8d22\u52a1
p307
aV\u4f1a\u8ba1
p308
aV\u51fa\u7eb3
p309
aV\u8d22\u52a1
p310
aV\u7ed3\u7b97
p311
aV\u7a0e\u52a1
p312
aV\u5ba1\u8ba1
p313
aV\u98ce\u63a7
p314
aV\u9ad8\u7aef\u804c\u4f4d
p315
aV\u884c\u653f\u603b\u76d1\u7ecf\u7406
p316
aV\u8d22\u52a1\u603b\u76d1\u7ecf\u7406
p317
aVHRDHRM
p318
aVCFO
p319
aVCEO
p320
aV\u6cd5\u52a1
p321
aV\u6cd5\u52a1
p322
aV\u5f8b\u5e08
p323
aV\u4e13\u5229
p324
asV\u91d1\u878d
p325
(lp326
V\u6295\u8d44
p327
aV\u878d\u8d44
p328
aV\u5e76\u8d2d
p329
aV\u98ce\u63a7
p330
aV\u6295\u878d\u8d44
p331
aV\u6295\u8d44\u7ecf\u7406
p332
aV\u5206\u6790\u5e08
p333
aV\u6295\u8d44\u52a9\u7406
p334
aV\u878d\u8d44
p335
aV\u5e76\u8d2d
p336
aV\u884c\u4e1a\u7814\u7a76
p337
aV\u6295\u8d44\u8005\u5173\u7cfb
p338
aV\u8d44\u4ea7\u7ba1\u7406
p339
aV\u7406\u8d22\u987e\u95ee
p340
aV\u4ea4\u6613\u5458
p341
aV\u98ce\u63a7
p342
aV\u98ce\u63a7
p343
aV\u8d44\u4fe1\u8bc4\u4f30
p344
aV\u5408\u89c4\u7a3d\u67e5
p345
aV\u5f8b\u5e08
p346
aV\u5ba1\u8ba1\u7a0e\u52a1
p347
aV\u5ba1\u8ba1
p348
aV\u6cd5\u52a1
p349
aV\u4f1a\u8ba1
p350
aV\u6e05\u7b97
p351
aV\u9ad8\u7aef\u804c\u4f4d
p352
aV\u6295\u8d44\u603b\u76d1
p353
aV\u878d\u8d44\u603b\u76d1
p354
aV\u5e76\u8d2d\u603b\u76d1
p355
aV\u98ce\u63a7\u603b\u76d1
p356
aV\u526f\u603b\u88c1
p357
as.