(dp0
(V\u9500\u552e\u884c\u653f/\u5546\u52a1
p1
V/jobs/searchresult.ashx?jl=640&bj=7002000
p2
tp3
(lp4
(V\u9500\u552e\u884c\u653f\u7ecf\u7406/\u4e3b\u7ba1
p5
V/jobs/searchresult.ashx?jl=640&bj=7002000&sj=459
p6
tp7
a(V\u9500\u552e\u884c\u653f\u4e13\u5458/\u52a9\u7406
p8
V/jobs/searchresult.ashx?jl=640&bj=7002000&sj=015
p9
tp10
a(V\u9500\u552e\u8fd0\u8425\u7ecf\u7406/\u4e3b\u7ba1
p11
V/jobs/searchresult.ashx?jl=640&bj=7002000&sj=662
p12
tp13
a(V\u9500\u552e\u8fd0\u8425\u4e13\u5458/\u52a9\u7406
p14
V/jobs/searchresult.ashx?jl=640&bj=7002000&sj=661
p15
tp16
a(V\u5546\u52a1\u7ecf\u7406/\u4e3b\u7ba1
p17
V/jobs/searchresult.ashx?jl=640&bj=7002000&sj=461
p18
tp19
a(V\u5546\u52a1\u4e13\u5458/\u52a9\u7406
p20
V/jobs/searchresult.ashx?jl=640&bj=7002000&sj=460
p21
tp22
a(V\u9500\u552e\u57f9\u8bad\u5e08/\u8bb2\u5e08
p23
V/jobs/searchresult.ashx?jl=640&bj=7002000&sj=463
p24
tp25
a(V\u9500\u552e\u6570\u636e\u5206\u6790
p26
V/jobs/searchresult.ashx?jl=640&bj=7002000&sj=462
p27
tp28
a(V\u4e1a\u52a1\u5206\u6790\u7ecf\u7406/\u4e3b\u7ba1
p29
V/jobs/searchresult.ashx?jl=640&bj=7002000&sj=2230
p30
tp31
a(V\u4e1a\u52a1\u5206\u6790\u4e13\u5458/\u52a9\u7406
p32
V/jobs/searchresult.ashx?jl=640&bj=7002000&sj=2231
p33
tp34
a(V\u5176\u4ed6
p35
V/jobs/searchresult.ashx?jl=640&bj=7002000&sj=464
p36
tp37
as(V\u751f\u7269/\u5236\u836f/\u533b\u7597\u5668\u68b0
p38
V/jobs/searchresult.ashx?jl=640&bj=121300
p39
tp40
(lp41
(V\u533b\u836f\u4ee3\u8868
p42
V/jobs/searchresult.ashx?jl=640&bj=121300&sj=296
p43
tp44
a(V\u533b\u836f\u9500\u552e\u7ecf\u7406/\u4e3b\u7ba1
p45
V/jobs/searchresult.ashx?jl=640&bj=121300&sj=770
p46
tp47
a(V\u836f\u54c1\u5e02\u573a\u63a8\u5e7f\u7ecf\u7406/\u4e3b\u7ba1
p48
V/jobs/searchresult.ashx?jl=640&bj=121300&sj=766
p49
tp50
a(V\u836f\u54c1\u5e02\u573a\u63a8\u5e7f\u4e13\u5458/\u52a9\u7406
p51
V/jobs/searchresult.ashx?jl=640&bj=121300&sj=767
p52
tp53
a(V\u533b\u7597\u5668\u68b0\u9500\u552e
p54
V/jobs/searchresult.ashx?jl=640&bj=121300&sj=773
p55
tp56
a(V\u533b\u7597\u5668\u68b0\u63a8\u5e7f
p57
V/jobs/searchresult.ashx?jl=640&bj=121300&sj=378
p58
tp59
a(V\u533b\u836f\u5b66\u672f\u63a8\u5e7f
p60
V/jobs/searchresult.ashx?jl=640&bj=121300&sj=775
p61
tp62
a(V\u533b\u836f\u62db\u5546
p63
V/jobs/searchresult.ashx?jl=640&bj=121300&sj=496
p64
tp65
a(V\u533b\u836f\u9879\u76ee\u7ba1\u7406
p66
V/jobs/searchresult.ashx?jl=640&bj=121300&sj=495
p67
tp68
a(V\u533b\u836f\u9879\u76ee\u62db\u6295\u6807\u7ba1\u7406
p69
V/jobs/searchresult.ashx?jl=640&bj=121300&sj=769
p70
tp71
a(V\u751f\u7269\u5de5\u7a0b/\u751f\u7269\u5236\u836f
p72
V/jobs/searchresult.ashx?jl=640&bj=121300&sj=292
p73
tp74
a(V\u836f\u54c1\u7814\u53d1
p75
V/jobs/searchresult.ashx?jl=640&bj=121300&sj=776
p76
tp77
a(V\u533b\u7597\u5668\u68b0\u7814\u53d1
p78
V/jobs/searchresult.ashx?jl=640&bj=121300&sj=876
p79
tp80
a(V\u4e34\u5e8a\u7814\u7a76\u5458
p81
V/jobs/searchresult.ashx?jl=640&bj=121300&sj=293
p82
tp83
a(V\u4e34\u5e8a\u534f\u8c03\u5458
p84
V/jobs/searchresult.ashx?jl=640&bj=121300&sj=877
p85
tp86
a(V\u4e34\u5e8a\u6570\u636e\u5206\u6790\u5458
p87
V/jobs/searchresult.ashx?jl=640&bj=121300&sj=765
p88
tp89
a(V\u533b\u836f\u5316\u5b66\u5206\u6790
p90
V/jobs/searchresult.ashx?jl=640&bj=121300&sj=763
p91
tp92
a(V\u533b\u836f\u6280\u672f\u7814\u53d1\u7ba1\u7406\u4eba\u5458
p93
V/jobs/searchresult.ashx?jl=640&bj=121300&sj=764
p94
tp95
a(V\u836f\u54c1\u6ce8\u518c
p96
V/jobs/searchresult.ashx?jl=640&bj=121300&sj=875
p97
tp98
a(V\u533b\u7597\u5668\u68b0\u6ce8\u518c
p99
V/jobs/searchresult.ashx?jl=640&bj=121300&sj=771
p100
tp101
a(V\u836f\u54c1\u751f\u4ea7/\u8d28\u91cf\u7ba1\u7406
p102
V/jobs/searchresult.ashx?jl=640&bj=121300&sj=294
p103
tp104
a(V\u533b\u7597\u5668\u68b0\u751f\u4ea7/\u8d28\u91cf\u7ba1\u7406
p105
V/jobs/searchresult.ashx?jl=640&bj=121300&sj=772
p106
tp107
a(V\u533b\u7597\u5668\u68b0\u7ef4\u4fee/\u4fdd\u517b
p108
V/jobs/searchresult.ashx?jl=640&bj=121300&sj=774
p109
tp110
a(V\u4e34\u5e8a\u63a8\u5e7f\u7ecf\u7406
p111
V/jobs/searchresult.ashx?jl=640&bj=121300&sj=2018
p112
tp113
a(V\u533b\u836f\u6280\u672f\u7814\u53d1\u4eba\u5458
p114
V/jobs/searchresult.ashx?jl=640&bj=121300&sj=2019
p115
tp116
a(V\u5176\u4ed6
p117
V/jobs/searchresult.ashx?jl=640&bj=121300&sj=297
p118
tp119
as(V\u6559\u80b2/\u57f9\u8bad
p120
V/jobs/searchresult.ashx?jl=640&bj=2090000
p121
tp122
(lp123
(V\u5e7c\u6559
p124
V/jobs/searchresult.ashx?jl=640&bj=2090000&sj=361
p125
tp126
a(V\u5c0f\u5b66\u6559\u5e08
p127
V/jobs/searchresult.ashx?jl=640&bj=2090000&sj=628
p128
tp129
a(V\u521d\u4e2d\u6559\u5e08
p130
V/jobs/searchresult.ashx?jl=640&bj=2090000&sj=627
p131
tp132
a(V\u9ad8\u4e2d\u6559\u5e08
p133
V/jobs/searchresult.ashx?jl=640&bj=2090000&sj=625
p134
tp135
a(V\u5927\u5b66\u6559\u5e08
p136
V/jobs/searchresult.ashx?jl=640&bj=2090000&sj=358
p137
tp138
a(V\u804c\u4e1a\u6280\u672f\u6559\u5e08
p139
V/jobs/searchresult.ashx?jl=640&bj=2090000&sj=626
p140
tp141
a(V\u5bb6\u6559
p142
V/jobs/searchresult.ashx?jl=640&bj=2090000&sj=359
p143
tp144
a(V\u517c\u804c\u6559\u5e08
p145
V/jobs/searchresult.ashx?jl=640&bj=2090000&sj=785
p146
tp147
a(V\u7406\u79d1\u6559\u5e08
p148
V/jobs/searchresult.ashx?jl=640&bj=2090000&sj=791
p149
tp150
a(V\u6587\u79d1\u6559\u5e08
p151
V/jobs/searchresult.ashx?jl=640&bj=2090000&sj=792
p152
tp153
a(V\u5916\u8bed\u6559\u5e08
p154
V/jobs/searchresult.ashx?jl=640&bj=2090000&sj=793
p155
tp156
a(V\u97f3\u4e50\u6559\u5e08
p157
V/jobs/searchresult.ashx?jl=640&bj=2090000&sj=790
p158
tp159
a(V\u7f8e\u672f\u6559\u5e08
p160
V/jobs/searchresult.ashx?jl=640&bj=2090000&sj=906
p161
tp162
a(V\u4f53\u80b2\u8001\u5e08/\u6559\u7ec3
p163
V/jobs/searchresult.ashx?jl=640&bj=2090000&sj=360
p164
tp165
a(V\u6821\u957f/\u526f\u6821\u957f
p166
V/jobs/searchresult.ashx?jl=640&bj=2090000&sj=624
p167
tp168
a(V\u6559\u5b66/\u6559\u52a1\u7ba1\u7406\u4eba\u5458
p169
V/jobs/searchresult.ashx?jl=640&bj=2090000&sj=132
p170
tp171
a(V\u57f9\u8bad\u7763\u5bfc
p172
V/jobs/searchresult.ashx?jl=640&bj=2090000&sj=786
p173
tp174
a(V\u57f9\u8bad\u5e08/\u8bb2\u5e08
p175
V/jobs/searchresult.ashx?jl=640&bj=2090000&sj=131
p176
tp177
a(V\u57f9\u8bad\u52a9\u7406/\u52a9\u6559
p178
V/jobs/searchresult.ashx?jl=640&bj=2090000&sj=788
p179
tp180
a(V\u6559\u80b2\u4ea7\u54c1\u5f00\u53d1
p181
V/jobs/searchresult.ashx?jl=640&bj=2090000&sj=135
p182
tp183
a(V\u57f9\u8bad\u7b56\u5212
p184
V/jobs/searchresult.ashx?jl=640&bj=2090000&sj=787
p185
tp186
a(V\u57f9\u8bad/\u62db\u751f/\u8bfe\u7a0b\u987e\u95ee
p187
V/jobs/searchresult.ashx?jl=640&bj=2090000&sj=789
p188
tp189
a(V\u5927\u5b66\u6559\u6388
p190
V/jobs/searchresult.ashx?jl=640&bj=2090000&sj=2114
p191
tp192
a(V\u821e\u8e48\u8001\u5e08
p193
V/jobs/searchresult.ashx?jl=640&bj=2090000&sj=2115
p194
tp195
a(V\u5916\u7c4d\u6559\u5e08
p196
V/jobs/searchresult.ashx?jl=640&bj=2090000&sj=2116
p197
tp198
a(V\u7279\u6559(\u7279\u6b8a\u6559\u80b2)
p199
V/jobs/searchresult.ashx?jl=640&bj=2090000&sj=2117
p200
tp201
a(V\u5176\u4ed6
p202
V/jobs/searchresult.ashx?jl=640&bj=2090000&sj=134
p203
tp204
as(V\u6c7d\u8f66\u9500\u552e\u4e0e\u670d\u52a1
p205
V/jobs/searchresult.ashx?jl=640&bj=7003100
p206
tp207
(lp208
(V\u6c7d\u8f66\u9500\u552e
p209
V/jobs/searchresult.ashx?jl=640&bj=7003100&sj=469
p210
tp211
a(V\u6c7d\u8f66\u96f6\u914d\u4ef6\u9500\u552e
p212
V/jobs/searchresult.ashx?jl=640&bj=7003100&sj=479
p213
tp214
a(V\u6c7d\u8f66\u552e\u540e\u670d\u52a1/\u5ba2\u6237\u670d\u52a1
p215
V/jobs/searchresult.ashx?jl=640&bj=7003100&sj=581
p216
tp217
a(V\u6c7d\u8f66\u7ef4\u4fee/\u4fdd\u517b
p218
V/jobs/searchresult.ashx?jl=640&bj=7003100&sj=728
p219
tp220
a(V\u6c7d\u8f66\u8d28\u91cf\u7ba1\u7406/\u68c0\u9a8c\u68c0\u6d4b
p221
V/jobs/searchresult.ashx?jl=640&bj=7003100&sj=727
p222
tp223
a(V\u6c7d\u8f66\u5b9a\u635f/\u8f66\u9669\u7406\u8d54
p224
V/jobs/searchresult.ashx?jl=640&bj=7003100&sj=480
p225
tp226
a(V\u6c7d\u8f66\u88c5\u9970\u7f8e\u5bb9
p227
V/jobs/searchresult.ashx?jl=640&bj=7003100&sj=483
p228
tp229
a(V\u4e8c\u624b\u8f66\u8bc4\u4f30\u5e08
p230
V/jobs/searchresult.ashx?jl=640&bj=7003100&sj=484
p231
tp232
a(V4S\u5e97\u7ba1\u7406
p233
V/jobs/searchresult.ashx?jl=640&bj=7003100&sj=477
p234
tp235
a(V\u5176\u4ed6
p236
V/jobs/searchresult.ashx?jl=640&bj=7003100&sj=582
p237
tp238
as(V\u571f\u6728/\u5efa\u7b51/\u88c5\u4fee/\u5e02\u653f\u5de5\u7a0b
p239
V/jobs/searchresult.ashx?jl=640&bj=140000
p240
tp241
(lp242
(V\u9ad8\u7ea7\u5efa\u7b51\u5de5\u7a0b\u5e08/\u603b\u5de5
p243
V/jobs/searchresult.ashx?jl=640&bj=140000&sj=350
p244
tp245
a(V\u5efa\u7b51\u5de5\u7a0b\u5e08
p246
V/jobs/searchresult.ashx?jl=640&bj=140000&sj=096
p247
tp248
a(V\u5efa\u7b51\u8bbe\u8ba1\u5e08
p249
V/jobs/searchresult.ashx?jl=640&bj=140000&sj=884
p250
tp251
a(V\u571f\u6728/\u571f\u5efa/\u7ed3\u6784\u5de5\u7a0b\u5e08
p252
V/jobs/searchresult.ashx?jl=640&bj=140000&sj=097
p253
tp254
a(V\u5ca9\u571f\u5de5\u7a0b
p255
V/jobs/searchresult.ashx?jl=640&bj=140000&sj=707
p256
tp257
a(V\u5efa\u7b51\u5236\u56fe
p258
V/jobs/searchresult.ashx?jl=640&bj=140000&sj=703
p259
tp260
a(V\u5efa\u7b51\u5de5\u7a0b\u6d4b\u7ed8/\u6d4b\u91cf
p261
V/jobs/searchresult.ashx?jl=640&bj=140000&sj=383
p262
tp263
a(V\u9053\u8def/\u6865\u6881/\u96a7\u9053\u5de5\u7a0b\u6280\u672f
p264
V/jobs/searchresult.ashx?jl=640&bj=140000&sj=466
p265
tp266
a(V\u6c34\u5229/\u6e2f\u53e3\u5de5\u7a0b\u6280\u672f
p267
V/jobs/searchresult.ashx?jl=640&bj=140000&sj=885
p268
tp269
a(V\u67b6\u7ebf\u548c\u7ba1\u9053\u5de5\u7a0b\u6280\u672f
p270
V/jobs/searchresult.ashx?jl=640&bj=140000&sj=886
p271
tp272
a(V\u7ed9\u6392\u6c34/\u6696\u901a/\u7a7a\u8c03\u5de5\u7a0b
p273
V/jobs/searchresult.ashx?jl=640&bj=140000&sj=099
p274
tp275
a(V\u667a\u80fd\u5927\u53a6/\u5e03\u7ebf/\u5f31\u7535/\u5b89\u9632
p276
V/jobs/searchresult.ashx?jl=640&bj=140000&sj=289
p277
tp278
a(V\u5ba4\u5185\u88c5\u6f62\u8bbe\u8ba1
p279
V/jobs/searchresult.ashx?jl=640&bj=140000&sj=100
p280
tp281
a(V\u5e55\u5899\u5de5\u7a0b\u5e08
p282
V/jobs/searchresult.ashx?jl=640&bj=140000&sj=564
p283
tp284
a(V\u56ed\u6797/\u666f\u89c2\u8bbe\u8ba1
p285
V/jobs/searchresult.ashx?jl=640&bj=140000&sj=563
p286
tp287
a(V\u57ce\u5e02\u89c4\u5212\u4e0e\u8bbe\u8ba1
p288
V/jobs/searchresult.ashx?jl=640&bj=140000&sj=103
p289
tp290
a(V\u5e02\u653f\u5de5\u7a0b\u5e08
p291
V/jobs/searchresult.ashx?jl=640&bj=140000&sj=562
p292
tp293
a(V\u5de5\u7a0b\u76d1\u7406/\u8d28\u91cf\u7ba1\u7406
p294
V/jobs/searchresult.ashx?jl=640&bj=140000&sj=106
p295
tp296
a(V\u5de5\u7a0b\u9020\u4ef7/\u9884\u7ed3\u7b97
p297
V/jobs/searchresult.ashx?jl=640&bj=140000&sj=102
p298
tp299
a(V\u5de5\u7a0b\u8d44\u6599\u7ba1\u7406
p300
V/jobs/searchresult.ashx?jl=640&bj=140000&sj=704
p301
tp302
a(V\u5efa\u7b51\u65bd\u5de5\u73b0\u573a\u7ba1\u7406
p303
V/jobs/searchresult.ashx?jl=640&bj=140000&sj=705
p304
tp305
a(V\u65bd\u5de5\u961f\u957f
p306
V/jobs/searchresult.ashx?jl=640&bj=140000&sj=706
p307
tp308
a(V\u65bd\u5de5\u5458
p309
V/jobs/searchresult.ashx?jl=640&bj=140000&sj=107
p310
tp311
a(V\u5efa\u7b51\u5de5\u7a0b\u5b89\u5168\u7ba1\u7406
p312
V/jobs/searchresult.ashx?jl=640&bj=140000&sj=565
p313
tp314
a(V\u8f6f\u88c5\u8bbe\u8ba1\u5e08
p315
V/jobs/searchresult.ashx?jl=640&bj=140000&sj=2023
p316
tp317
a(V\u5de5\u7a0b\u603b\u76d1
p318
V/jobs/searchresult.ashx?jl=640&bj=140000&sj=2024
p319
tp320
a(V\u571f\u5efa\u52d8\u5bdf
p321
V/jobs/searchresult.ashx?jl=640&bj=140000&sj=2025
p322
tp323
a(V\u786c\u88c5\u8bbe\u8ba1\u5e08
p324
V/jobs/searchresult.ashx?jl=640&bj=140000&sj=2026
p325
tp326
a(V\u6a71\u67dc\u8bbe\u8ba1\u5e08
p327
V/jobs/searchresult.ashx?jl=640&bj=140000&sj=2027
p328
tp329
a(V\u5176\u4ed6
p330
V/jobs/searchresult.ashx?jl=640&bj=140000&sj=108
p331
tp332
as(V\u8f6f\u4ef6/\u4e92\u8054\u7f51\u5f00\u53d1/\u7cfb\u7edf\u96c6\u6210
p333
V/jobs/searchresult.ashx?jl=640&bj=160000
p334
tp335
(lp336
(V\u9ad8\u7ea7\u8f6f\u4ef6\u5de5\u7a0b\u5e08
p337
V/jobs/searchresult.ashx?jl=640&bj=160000&sj=044
p338
tp339
a(V\u8f6f\u4ef6\u5de5\u7a0b\u5e08
p340
V/jobs/searchresult.ashx?jl=640&bj=160000&sj=045
p341
tp342
a(V\u8f6f\u4ef6\u7814\u53d1\u5de5\u7a0b\u5e08
p343
V/jobs/searchresult.ashx?jl=640&bj=160000&sj=079
p344
tp345
a(V\u9700\u6c42\u5de5\u7a0b\u5e08
p346
V/jobs/searchresult.ashx?jl=640&bj=160000&sj=665
p347
tp348
a(V\u7cfb\u7edf\u67b6\u6784\u8bbe\u8ba1\u5e08
p349
V/jobs/searchresult.ashx?jl=640&bj=160000&sj=667
p350
tp351
a(V\u7cfb\u7edf\u5206\u6790\u5458
p352
V/jobs/searchresult.ashx?jl=640&bj=160000&sj=668
p353
tp354
a(V\u6570\u636e\u5e93\u5f00\u53d1\u5de5\u7a0b\u5e08
p355
V/jobs/searchresult.ashx?jl=640&bj=160000&sj=047
p356
tp357
a(VERP\u6280\u672f/\u5f00\u53d1\u5e94\u7528
p358
V/jobs/searchresult.ashx?jl=640&bj=160000&sj=048
p359
tp360
a(V\u4e92\u8054\u7f51\u8f6f\u4ef6\u5de5\u7a0b\u5e08
p361
V/jobs/searchresult.ashx?jl=640&bj=160000&sj=053
p362
tp363
a(V\u624b\u673a\u8f6f\u4ef6\u5f00\u53d1\u5de5\u7a0b\u5e08
p364
V/jobs/searchresult.ashx?jl=640&bj=160000&sj=679
p365
tp366
a(V\u5d4c\u5165\u5f0f\u8f6f\u4ef6\u5f00\u53d1
p367
V/jobs/searchresult.ashx?jl=640&bj=160000&sj=687
p368
tp369
a(V\u79fb\u52a8\u4e92\u8054\u7f51\u5f00\u53d1
p370
V/jobs/searchresult.ashx?jl=640&bj=160000&sj=863
p371
tp372
a(VWEB\u524d\u7aef\u5f00\u53d1
p373
V/jobs/searchresult.ashx?jl=640&bj=160000&sj=864
p374
tp375
a(V\u8bed\u97f3/\u89c6\u9891/\u56fe\u5f62\u5f00\u53d1
p376
V/jobs/searchresult.ashx?jl=640&bj=160000&sj=317
p377
tp378
a(V\u7528\u6237\u754c\u9762\uff08UI\uff09\u8bbe\u8ba1
p379
V/jobs/searchresult.ashx?jl=640&bj=160000&sj=669
p380
tp381
a(V\u7528\u6237\u4f53\u9a8c\uff08UE/UX\uff09\u8bbe\u8ba1
p382
V/jobs/searchresult.ashx?jl=640&bj=160000&sj=861
p383
tp384
a(V\u7f51\u9875\u8bbe\u8ba1/\u5236\u4f5c/\u7f8e\u5de5
p385
V/jobs/searchresult.ashx?jl=640&bj=160000&sj=054
p386
tp387
a(V\u6e38\u620f\u8bbe\u8ba1/\u5f00\u53d1
p388
V/jobs/searchresult.ashx?jl=640&bj=160000&sj=057
p389
tp390
a(V\u6e38\u620f\u7b56\u5212
p391
V/jobs/searchresult.ashx?jl=640&bj=160000&sj=671
p392
tp393
a(V\u6e38\u620f\u754c\u9762\u8bbe\u8ba1
p394
V/jobs/searchresult.ashx?jl=640&bj=160000&sj=672
p395
tp396
a(V\u7cfb\u7edf\u96c6\u6210\u5de5\u7a0b\u5e08
p397
V/jobs/searchresult.ashx?jl=640&bj=160000&sj=666
p398
tp399
a(V\u7b97\u6cd5\u5de5\u7a0b\u5e08
p400
V/jobs/searchresult.ashx?jl=640&bj=160000&sj=2034
p401
tp402
a(V\u4eff\u771f\u5e94\u7528\u5de5\u7a0b\u5e08
p403
V/jobs/searchresult.ashx?jl=640&bj=160000&sj=2035
p404
tp405
a(V\u8ba1\u7b97\u673a\u8f85\u52a9\u8bbe\u8ba1\u5e08
p406
V/jobs/searchresult.ashx?jl=640&bj=160000&sj=2036
p407
tp408
a(V\u7f51\u7ad9\u67b6\u6784\u8bbe\u8ba1\u5e08
p409
V/jobs/searchresult.ashx?jl=640&bj=160000&sj=2037
p410
tp411
a(VIOS\u5f00\u53d1\u5de5\u7a0b\u5e08
p412
V/jobs/searchresult.ashx?jl=640&bj=160000&sj=2038
p413
tp414
a(VAndroid\u5f00\u53d1\u5de5\u7a0b\u5e08
p415
V/jobs/searchresult.ashx?jl=640&bj=160000&sj=2039
p416
tp417
a(VJava\u5f00\u53d1\u5de5\u7a0b\u5e08
p418
V/jobs/searchresult.ashx?jl=640&bj=160000&sj=2040
p419
tp420
a(VPHP\u5f00\u53d1\u5de5\u7a0b\u5e08
p421
V/jobs/searchresult.ashx?jl=640&bj=160000&sj=2041
p422
tp423
a(VC\u8bed\u8a00\u5f00\u53d1\u5de5\u7a0b\u5e08
p424
V/jobs/searchresult.ashx?jl=640&bj=160000&sj=2042
p425
tp426
a(V\u811a\u672c\u5f00\u53d1\u5de5\u7a0b\u5e08
p427
V/jobs/searchresult.ashx?jl=640&bj=160000&sj=2043
p428
tp429
a(V\u5176\u4ed6
p430
V/jobs/searchresult.ashx?jl=640&bj=160000&sj=060
p431
tp432
as(V\u5f71\u89c6/\u5a92\u4f53/\u51fa\u7248/\u5370\u5237
p433
V/jobs/searchresult.ashx?jl=640&bj=2120000
p434
tp435
(lp436
(V\u5bfc\u6f14/\u7f16\u5bfc
p437
V/jobs/searchresult.ashx?jl=640&bj=2120000&sj=175
p438
tp439
a(V\u603b\u7f16/\u526f\u603b\u7f16
p440
V/jobs/searchresult.ashx?jl=640&bj=2120000&sj=367
p441
tp442
a(V\u827a\u672f\u6307\u5bfc/\u821e\u7f8e\u8bbe\u8ba1
p443
V/jobs/searchresult.ashx?jl=640&bj=2120000&sj=180
p444
tp445
a(V\u6444\u5f71\u5e08/\u6444\u50cf\u5e08
p446
V/jobs/searchresult.ashx?jl=640&bj=2120000&sj=179
p447
tp448
a(V\u5316\u5986\u5e08/\u9020\u578b\u5e08/\u670d\u88c5/\u9053\u5177
p449
V/jobs/searchresult.ashx?jl=640&bj=2120000&sj=182
p450
tp451
a(V\u4e3b\u6301\u4eba/\u53f8\u4eea
p452
V/jobs/searchresult.ashx?jl=640&bj=2120000&sj=177
p453
tp454
a(V\u6f14\u5458/\u6a21\u7279
p455
V/jobs/searchresult.ashx?jl=640&bj=2120000&sj=893
p456
tp457
a(V\u914d\u97f3\u5458
p458
V/jobs/searchresult.ashx?jl=640&bj=2120000&sj=891
p459
tp460
a(V\u97f3\u6548\u5e08
p461
V/jobs/searchresult.ashx?jl=640&bj=2120000&sj=890
p462
tp463
a(V\u540e\u671f\u5236\u4f5c
p464
V/jobs/searchresult.ashx?jl=640&bj=2120000&sj=185
p465
tp466
a(V\u7ecf\u7eaa\u4eba/\u661f\u63a2
p467
V/jobs/searchresult.ashx?jl=640&bj=2120000&sj=178
p468
tp469
a(V\u653e\u6620\u7ba1\u7406
p470
V/jobs/searchresult.ashx?jl=640&bj=2120000&sj=760
p471
tp472
a(V\u4f5c\u5bb6/\u7f16\u5267/\u64b0\u7a3f\u4eba
p473
V/jobs/searchresult.ashx?jl=640&bj=2120000&sj=762
p474
tp475
a(V\u6587\u5b57\u7f16\u8f91/\u7ec4\u7a3f
p476
V/jobs/searchresult.ashx?jl=640&bj=2120000&sj=176
p477
tp478
a(V\u7f8e\u672f\u7f16\u8f91/\u7f8e\u672f\u8bbe\u8ba1
p479
V/jobs/searchresult.ashx?jl=640&bj=2120000&sj=892
p480
tp481
a(V\u8bb0\u8005/\u91c7\u7f16
p482
V/jobs/searchresult.ashx?jl=640&bj=2120000&sj=612
p483
tp484
a(V\u7535\u8bdd\u91c7\u7f16
p485
V/jobs/searchresult.ashx?jl=640&bj=2120000&sj=761
p486
tp487
a(V\u6587\u6848\u7b56\u5212
p488
V/jobs/searchresult.ashx?jl=640&bj=2120000&sj=152
p489
tp490
a(V\u6821\u5bf9/\u5f55\u5165
p491
V/jobs/searchresult.ashx?jl=640&bj=2120000&sj=395
p492
tp493
a(V\u53d1\u884c\u7ba1\u7406
p494
V/jobs/searchresult.ashx?jl=640&bj=2120000&sj=183
p495
tp496
a(V\u6392\u7248\u8bbe\u8ba1
p497
V/jobs/searchresult.ashx?jl=640&bj=2120000&sj=181
p498
tp499
a(V\u5370\u5237\u6392\u7248/\u5236\u7248
p500
V/jobs/searchresult.ashx?jl=640&bj=2120000&sj=533
p501
tp502
a(V\u5370\u5237\u64cd\u4f5c
p503
V/jobs/searchresult.ashx?jl=640&bj=2120000&sj=613
p504
tp505
a(V\u7f16\u8f91\u51fa\u7248
p506
V/jobs/searchresult.ashx?jl=640&bj=2120000&sj=2121
p507
tp508
a(V\u4e3b\u7b14\u8bbe\u8ba1\u5e08
p509
V/jobs/searchresult.ashx?jl=640&bj=2120000&sj=2122
p510
tp511
a(V\u653e\u6620\u5458
p512
V/jobs/searchresult.ashx?jl=640&bj=2120000&sj=2123
p513
tp514
a(V\u706f\u5149\u5e08
p515
V/jobs/searchresult.ashx?jl=640&bj=2120000&sj=2124
p516
tp517
a(V\u827a\u672f/\u8bbe\u8ba1\u603b\u76d1
p518
V/jobs/searchresult.ashx?jl=640&bj=2120000&sj=2125
p519
tp520
a(V\u5f71\u89c6\u7b56\u5212/\u5236\u4f5c\u4eba\u5458
p521
V/jobs/searchresult.ashx?jl=640&bj=2120000&sj=2126
p522
tp523
a(V\u8c03\u8272\u5458
p524
V/jobs/searchresult.ashx?jl=640&bj=2120000&sj=2127
p525
tp526
a(V\u70eb\u91d1\u5de5
p527
V/jobs/searchresult.ashx?jl=640&bj=2120000&sj=2128
p528
tp529
a(V\u6652\u7248\u5458
p530
V/jobs/searchresult.ashx?jl=640&bj=2120000&sj=2129
p531
tp532
a(V\u88c5\u8ba2\u5de5
p533
V/jobs/searchresult.ashx?jl=640&bj=2120000&sj=2130
p534
tp535
a(V\u6570\u7801\u76f4\u5370/\u83f2\u6797\u8f93\u51fa
p536
V/jobs/searchresult.ashx?jl=640&bj=2120000&sj=2131
p537
tp538
a(V\u8c03\u58a8\u6280\u5e08
p539
V/jobs/searchresult.ashx?jl=640&bj=2120000&sj=2132
p540
tp541
a(V\u7535\u5206\u64cd\u4f5c\u5458
p542
V/jobs/searchresult.ashx?jl=640&bj=2120000&sj=2133
p543
tp544
a(V\u6253\u7a3f\u673a\u64cd\u4f5c\u5458
p545
V/jobs/searchresult.ashx?jl=640&bj=2120000&sj=2134
p546
tp547
a(V\u5207\u7eb8\u673a\u64cd\u4f5c\u5de5
p548
V/jobs/searchresult.ashx?jl=640&bj=2120000&sj=2135
p549
tp550
a(V\u88f1\u80f6\u5de5
p551
V/jobs/searchresult.ashx?jl=640&bj=2120000&sj=2136
p552
tp553
a(V\u590d\u5377\u5de5
p554
V/jobs/searchresult.ashx?jl=640&bj=2120000&sj=2137
p555
tp556
a(V\u538b\u75d5\u5de5
p557
V/jobs/searchresult.ashx?jl=640&bj=2120000&sj=2138
p558
tp559
a(V\u5370\u5237\u673a\u68b0\u673a\u957f
p560
V/jobs/searchresult.ashx?jl=640&bj=2120000&sj=2139
p561
tp562
a(V\u8f6c\u64ad\u5de5\u7a0b\u5e08
p563
V/jobs/searchresult.ashx?jl=640&bj=2120000&sj=2140
p564
tp565
a(V\u89c6\u9891\u4e3b\u64ad
p566
V/jobs/searchresult.ashx?jl=640&bj=2120000&sj=2141
p567
tp568
a(V\u5176\u4ed6
p569
V/jobs/searchresult.ashx?jl=640&bj=2120000&sj=186
p570
tp571
as(V\u9500\u552e\u7ba1\u7406
p572
V/jobs/searchresult.ashx?jl=640&bj=7001000
p573
tp574
(lp575
(V\u9500\u552e\u603b\u76d1
p576
V/jobs/searchresult.ashx?jl=640&bj=7001000&sj=000
p577
tp578
a(V\u9500\u552e\u7ecf\u7406
p579
V/jobs/searchresult.ashx?jl=640&bj=7001000&sj=001
p580
tp581
a(V\u9500\u552e\u4e3b\u7ba1
p582
V/jobs/searchresult.ashx?jl=640&bj=7001000&sj=002
p583
tp584
a(V\u5ba2\u6237\u603b\u76d1
p585
V/jobs/searchresult.ashx?jl=640&bj=7001000&sj=845
p586
tp587
a(V\u5ba2\u6237\u7ecf\u7406
p588
V/jobs/searchresult.ashx?jl=640&bj=7001000&sj=004
p589
tp590
a(V\u5ba2\u6237\u4e3b\u7ba1
p591
V/jobs/searchresult.ashx?jl=640&bj=7001000&sj=548
p592
tp593
a(V\u6e20\u9053/\u5206\u9500\u603b\u76d1
p594
V/jobs/searchresult.ashx?jl=640&bj=7001000&sj=003
p595
tp596
a(V\u6e20\u9053/\u5206\u9500\u7ecf\u7406/\u4e3b\u7ba1
p597
V/jobs/searchresult.ashx?jl=640&bj=7001000&sj=453
p598
tp599
a(V\u533a\u57df\u9500\u552e\u603b\u76d1
p600
V/jobs/searchresult.ashx?jl=640&bj=7001000&sj=005
p601
tp602
a(V\u533a\u57df\u9500\u552e\u7ecf\u7406/\u4e3b\u7ba1
p603
V/jobs/searchresult.ashx?jl=640&bj=7001000&sj=843
p604
tp605
a(V\u4e1a\u52a1\u62d3\u5c55\u7ecf\u7406/\u4e3b\u7ba1
p606
V/jobs/searchresult.ashx?jl=640&bj=7001000&sj=454
p607
tp608
a(V\u5927\u5ba2\u6237\u9500\u552e\u7ecf\u7406
p609
V/jobs/searchresult.ashx?jl=640&bj=7001000&sj=660
p610
tp611
a(V\u56e2\u8d2d\u7ecf\u7406/\u4e3b\u7ba1
p612
V/jobs/searchresult.ashx?jl=640&bj=7001000&sj=455
p613
tp614
a(V\u533b\u836f\u9500\u552e\u7ecf\u7406/\u4e3b\u7ba1
p615
V/jobs/searchresult.ashx?jl=640&bj=7001000&sj=844
p616
tp617
a(V\u5176\u4ed6
p618
V/jobs/searchresult.ashx?jl=640&bj=7001000&sj=458
p619
tp620
as(V\u5e7f\u544a/\u4f1a\u5c55
p621
V/jobs/searchresult.ashx?jl=640&bj=7004000
p622
tp623
(lp624
(V\u5e7f\u544a\u521b\u610f/\u8bbe\u8ba1\u603b\u76d1
p625
V/jobs/searchresult.ashx?jl=640&bj=7004000&sj=756
p626
tp627
a(V\u5e7f\u544a\u521b\u610f/\u8bbe\u8ba1\u7ecf\u7406/\u4e3b\u7ba1
p628
V/jobs/searchresult.ashx?jl=640&bj=7004000&sj=757
p629
tp630
a(V\u5e7f\u544a\u521b\u610f/\u8bbe\u8ba1\u5e08
p631
V/jobs/searchresult.ashx?jl=640&bj=7004000&sj=510
p632
tp633
a(V\u5e7f\u544a\u6587\u6848\u7b56\u5212
p634
V/jobs/searchresult.ashx?jl=640&bj=7004000&sj=509
p635
tp636
a(V\u5e7f\u544a\u7f8e\u672f\u6307\u5bfc
p637
V/jobs/searchresult.ashx?jl=640&bj=7004000&sj=512
p638
tp639
a(V\u5e7f\u544a\u5236\u4f5c\u6267\u884c
p640
V/jobs/searchresult.ashx?jl=640&bj=7004000&sj=514
p641
tp642
a(V\u5e7f\u544a\u5ba2\u6237\u603b\u76d1
p643
V/jobs/searchresult.ashx?jl=640&bj=7004000&sj=855
p644
tp645
a(V\u5e7f\u544a\u5ba2\u6237\u7ecf\u7406
p646
V/jobs/searchresult.ashx?jl=640&bj=7004000&sj=506
p647
tp648
a(V\u5e7f\u544a\u5ba2\u6237\u4e3b\u7ba1
p649
V/jobs/searchresult.ashx?jl=640&bj=7004000&sj=856
p650
tp651
a(V\u5e7f\u544a\u5ba2\u6237\u4ee3\u8868
p652
V/jobs/searchresult.ashx?jl=640&bj=7004000&sj=507
p653
tp654
a(V\u5e7f\u544a/\u4f1a\u5c55\u4e1a\u52a1\u62d3\u5c55
p655
V/jobs/searchresult.ashx?jl=640&bj=7004000&sj=508
p656
tp657
a(V\u4f1a\u5c55\u7b56\u5212/\u8bbe\u8ba1
p658
V/jobs/searchresult.ashx?jl=640&bj=7004000&sj=610
p659
tp660
a(V\u4f1a\u52a1\u7ecf\u7406/\u4e3b\u7ba1
p661
V/jobs/searchresult.ashx?jl=640&bj=7004000&sj=857
p662
tp663
a(V\u4f1a\u52a1\u4e13\u5458/\u52a9\u7406
p664
V/jobs/searchresult.ashx?jl=640&bj=7004000&sj=172
p665
tp666
a(V\u5e7f\u544a/\u4f1a\u5c55\u9879\u76ee\u7ba1\u7406
p667
V/jobs/searchresult.ashx?jl=640&bj=7004000&sj=609
p668
tp669
a(V\u4f01\u4e1a/\u4e1a\u52a1\u53d1\u5c55\u7ecf\u7406
p670
V/jobs/searchresult.ashx?jl=640&bj=7004000&sj=2237
p671
tp672
a(V\u5176\u4ed6
p673
V/jobs/searchresult.ashx?jl=640&bj=7004000&sj=515
p674
tp675
as(V\u517c\u804c/\u4e34\u65f6
p676
V/jobs/searchresult.ashx?jl=640&bj=300100
p677
tp678
(lp679
(V\u517c\u804c
p680
V/jobs/searchresult.ashx?jl=640&bj=300100&sj=659
p681
tp682
a(V\u4e34\u65f6
p683
V/jobs/searchresult.ashx?jl=640&bj=300100&sj=300
p684
tp685
a(V\u56fd\u5916\u6c42\u804c
p686
V/jobs/searchresult.ashx?jl=640&bj=300100&sj=2143
p687
tp688
a(V\u5176\u4ed6
p689
V/jobs/searchresult.ashx?jl=640&bj=300100&sj=303
p690
tp691
as(V\u7535\u4fe1/\u901a\u4fe1\u6280\u672f\u5f00\u53d1\u53ca\u5e94\u7528
p692
V/jobs/searchresult.ashx?jl=640&bj=5001000
p693
tp694
(lp695
(V\u901a\u4fe1\u6280\u672f\u5de5\u7a0b\u5e08
p696
V/jobs/searchresult.ashx?jl=640&bj=5001000&sj=680
p697
tp698
a(V\u901a\u4fe1\u7814\u53d1\u5de5\u7a0b\u5e08
p699
V/jobs/searchresult.ashx?jl=640&bj=5001000&sj=500
p700
tp701
a(V\u6570\u636e\u901a\u4fe1\u5de5\u7a0b\u5e08
p702
V/jobs/searchresult.ashx?jl=640&bj=5001000&sj=323
p703
tp704
a(V\u79fb\u52a8\u901a\u4fe1\u5de5\u7a0b\u5e08
p705
V/jobs/searchresult.ashx?jl=640&bj=5001000&sj=324
p706
tp707
a(V\u7535\u4fe1\u7f51\u7edc\u5de5\u7a0b\u5e08
p708
V/jobs/searchresult.ashx?jl=640&bj=5001000&sj=325
p709
tp710
a(V\u7535\u4fe1\u4ea4\u6362\u5de5\u7a0b\u5e08
p711
V/jobs/searchresult.ashx?jl=640&bj=5001000&sj=322
p712
tp713
a(V\u6709\u7ebf\u4f20\u8f93\u5de5\u7a0b\u5e08
p714
V/jobs/searchresult.ashx?jl=640&bj=5001000&sj=320
p715
tp716
a(V\u65e0\u7ebf/\u5c04\u9891\u901a\u4fe1\u5de5\u7a0b\u5e08
p717
V/jobs/searchresult.ashx?jl=640&bj=5001000&sj=321
p718
tp719
a(V\u901a\u4fe1\u7535\u6e90\u5de5\u7a0b\u5e08
p720
V/jobs/searchresult.ashx?jl=640&bj=5001000&sj=326
p721
tp722
a(V\u901a\u4fe1\u6807\u51c6\u5316\u5de5\u7a0b\u5e08
p723
V/jobs/searchresult.ashx?jl=640&bj=5001000&sj=558
p724
tp725
a(V\u901a\u4fe1\u9879\u76ee\u7ba1\u7406
p726
V/jobs/searchresult.ashx?jl=640&bj=5001000&sj=499
p727
tp728
a(V\u589e\u503c\u4ea7\u54c1\u5f00\u53d1\u5de5\u7a0b\u5e08
p729
V/jobs/searchresult.ashx?jl=640&bj=5001000&sj=2183
p730
tp731
a(V\u5176\u4ed6
p732
V/jobs/searchresult.ashx?jl=640&bj=5001000&sj=327
p733
tp734
as(V\u670d\u88c5/\u7eba\u7ec7/\u76ae\u9769\u8bbe\u8ba1/\u751f\u4ea7
p735
V/jobs/searchresult.ashx?jl=640&bj=7005000
p736
tp737
(lp738
(V\u670d\u88c5/\u7eba\u7ec7\u54c1\u8bbe\u8ba1
p739
V/jobs/searchresult.ashx?jl=640&bj=7005000&sj=155
p740
tp741
a(V\u670d\u88c5\u6253\u6837/\u5236\u7248
p742
V/jobs/searchresult.ashx?jl=640&bj=7005000&sj=522
p743
tp744
a(V\u670d\u88c5/\u7eba\u7ec7/\u76ae\u9769\u5de5\u827a\u5e08
p745
V/jobs/searchresult.ashx?jl=640&bj=7005000&sj=739
p746
tp747
a(V\u7535\u8111\u653e\u7801\u5458
p748
V/jobs/searchresult.ashx?jl=640&bj=7005000&sj=738
p749
tp750
a(V\u88c1\u5e8a
p751
V/jobs/searchresult.ashx?jl=640&bj=7005000&sj=524
p752
tp753
a(V\u6837\u8863\u5de5
p754
V/jobs/searchresult.ashx?jl=640&bj=7005000&sj=523
p755
tp756
a(V\u9762\u6599\u8f85\u6599\u5f00\u53d1/\u91c7\u8d2d
p757
V/jobs/searchresult.ashx?jl=640&bj=7005000&sj=521
p758
tp759
a(V\u670d\u88c5/\u7eba\u7ec7/\u76ae\u9769\u8ddf\u5355
p760
V/jobs/searchresult.ashx?jl=640&bj=7005000&sj=520
p761
tp762
a(V\u670d\u88c5/\u7eba\u7ec7\u54c1/\u76ae\u9769\u9500\u552e
p763
V/jobs/searchresult.ashx?jl=640&bj=7005000&sj=516
p764
tp765
a(V\u670d\u88c5/\u7eba\u7ec7\u54c1/\u76ae\u9769\u8d28\u91cf\u7ba1\u7406
p766
V/jobs/searchresult.ashx?jl=640&bj=7005000&sj=519
p767
tp768
a(V\u670d\u88c5/\u7eba\u7ec7/\u76ae\u9769\u9879\u76ee\u7ba1\u7406
p769
V/jobs/searchresult.ashx?jl=640&bj=7005000&sj=517
p770
tp771
a(V\u670d\u88c5/\u7eba\u7ec7\u8bbe\u8ba1\u603b\u76d1
p772
V/jobs/searchresult.ashx?jl=640&bj=7005000&sj=2238
p773
tp774
a(V\u7eb8\u6837\u5e08/\u8f66\u677f\u5e08
p775
V/jobs/searchresult.ashx?jl=640&bj=7005000&sj=2239
p776
tp777
a(V\u526a\u88c1\u5de5
p778
V/jobs/searchresult.ashx?jl=640&bj=7005000&sj=2240
p779
tp780
a(V\u7f1d\u7eab\u5de5
p781
V/jobs/searchresult.ashx?jl=640&bj=7005000&sj=2241
p782
tp783
a(V\u7eba\u7ec7\u5de5/\u9488\u7ec7\u5de5
p784
V/jobs/searchresult.ashx?jl=640&bj=7005000&sj=2242
p785
tp786
a(V\u914d\u8272\u5de5
p787
V/jobs/searchresult.ashx?jl=640&bj=7005000&sj=2243
p788
tp789
a(V\u5370\u67d3\u5de5
p790
V/jobs/searchresult.ashx?jl=640&bj=7005000&sj=2244
p791
tp792
a(V\u6f02\u67d3\u5de5
p793
V/jobs/searchresult.ashx?jl=640&bj=7005000&sj=2245
p794
tp795
a(V\u6321\u8f66\u5de5
p796
V/jobs/searchresult.ashx?jl=640&bj=7005000&sj=2246
p797
tp798
a(V\u6d46\u7eb1\u5de5
p799
V/jobs/searchresult.ashx?jl=640&bj=7005000&sj=2247
p800
tp801
a(V\u6574\u7ecf\u5de5
p802
V/jobs/searchresult.ashx?jl=640&bj=7005000&sj=2248
p803
tp804
a(V\u978b\u5b50\u8bbe\u8ba1
p805
V/jobs/searchresult.ashx?jl=640&bj=7005000&sj=2249
p806
tp807
a(V\u7ec6\u7eb1\u5de5
p808
V/jobs/searchresult.ashx?jl=640&bj=7005000&sj=2250
p809
tp810
a(V\u5176\u4ed6
p811
V/jobs/searchresult.ashx?jl=640&bj=7005000&sj=525
p812
tp813
as(V\u54a8\u8be2/\u987e\u95ee/\u8c03\u7814/\u6570\u636e\u5206\u6790
p814
V/jobs/searchresult.ashx?jl=640&bj=2140000
p815
tp816
(lp817
(V\u54a8\u8be2\u603b\u76d1
p818
V/jobs/searchresult.ashx?jl=640&bj=2140000&sj=216
p819
tp820
a(V\u54a8\u8be2\u7ecf\u7406/\u4e3b\u7ba1
p821
V/jobs/searchresult.ashx?jl=640&bj=2140000&sj=217
p822
tp823
a(V\u54a8\u8be2\u987e\u95ee/\u54a8\u8be2\u5458
p824
V/jobs/searchresult.ashx?jl=640&bj=2140000&sj=219
p825
tp826
a(V\u4e13\u4e1a\u987e\u95ee
p827
V/jobs/searchresult.ashx?jl=640&bj=2140000&sj=220
p828
tp829
a(V\u8c03\u7814\u5458
p830
V/jobs/searchresult.ashx?jl=640&bj=2140000&sj=623
p831
tp832
a(V\u6570\u636e\u5206\u6790\u5e08
p833
V/jobs/searchresult.ashx?jl=640&bj=2140000&sj=894
p834
tp835
a(V\u60c5\u62a5\u4fe1\u606f\u5206\u6790
p836
V/jobs/searchresult.ashx?jl=640&bj=2140000&sj=221
p837
tp838
a(V\u730e\u5934\u987e\u95ee/\u52a9\u7406
p839
V/jobs/searchresult.ashx?jl=640&bj=2140000&sj=781
p840
tp841
a(V\u54a8\u8be2\u9879\u76ee\u7ba1\u7406
p842
V/jobs/searchresult.ashx?jl=640&bj=2140000&sj=783
p843
tp844
a(V\u54a8\u8be2\u5e08
p845
V/jobs/searchresult.ashx?jl=640&bj=2140000&sj=2142
p846
tp847
a(V\u5176\u4ed6
p848
V/jobs/searchresult.ashx?jl=640&bj=2140000&sj=222
p849
tp850
as(V\u5316\u5de5
p851
V/jobs/searchresult.ashx?jl=640&bj=120500
p852
tp853
(lp854
(V\u5316\u5de5\u5de5\u7a0b\u5e08
p855
V/jobs/searchresult.ashx?jl=640&bj=120500&sj=023
p856
tp857
a(V\u5316\u5de5\u7814\u53d1\u5de5\u7a0b\u5e08
p858
V/jobs/searchresult.ashx?jl=640&bj=120500&sj=502
p859
tp860
a(V\u5316\u5b66\u5206\u6790
p861
V/jobs/searchresult.ashx?jl=640&bj=120500&sj=396
p862
tp863
a(V\u5316\u5b66\u6280\u672f\u5e94\u7528
p864
V/jobs/searchresult.ashx?jl=640&bj=120500&sj=112
p865
tp866
a(V\u5316\u5b66\u64cd\u4f5c
p867
V/jobs/searchresult.ashx?jl=640&bj=120500&sj=111
p868
tp869
a(V\u5316\u5b66\u5236\u5242\u7814\u53d1
p870
V/jobs/searchresult.ashx?jl=640&bj=120500&sj=371
p871
tp872
a(V\u6cb9\u6f06/\u5316\u5de5\u6d82\u6599\u7814\u53d1
p873
V/jobs/searchresult.ashx?jl=640&bj=120500&sj=505
p874
tp875
a(V\u5851\u6599\u5de5\u7a0b\u5e08
p876
V/jobs/searchresult.ashx?jl=640&bj=120500&sj=614
p877
tp878
a(V\u5316\u5b66\u5b9e\u9a8c\u5ba4\u6280\u672f\u5458/\u7814\u7a76\u5458
p879
V/jobs/searchresult.ashx?jl=640&bj=120500&sj=504
p880
tp881
a(V\u5316\u5de5\u9879\u76ee\u7ba1\u7406
p882
V/jobs/searchresult.ashx?jl=640&bj=120500&sj=503
p883
tp884
a(V\u6a61\u80f6\u5de5\u7a0b\u5e08
p885
V/jobs/searchresult.ashx?jl=640&bj=120500&sj=2006
p886
tp887
a(V\u914d\u8272\u6280\u672f\u5458
p888
V/jobs/searchresult.ashx?jl=640&bj=120500&sj=2007
p889
tp890
a(V\u5316\u5986\u54c1\u7814\u53d1
p891
V/jobs/searchresult.ashx?jl=640&bj=120500&sj=2008
p892
tp893
a(V\u9020\u7eb8\u7814\u53d1
p894
V/jobs/searchresult.ashx?jl=640&bj=120500&sj=2009
p895
tp896
a(V\u5316\u5b66/\u5316\u5de5\u6280\u672f\u603b\u76d1
p897
V/jobs/searchresult.ashx?jl=640&bj=120500&sj=2010
p898
tp899
a(V\u5176\u4ed6
p900
V/jobs/searchresult.ashx?jl=640&bj=120500&sj=113
p901
tp902
as(V\u7ffb\u8bd1\uff08\u53e3\u8bd1\u4e0e\u7b14\u8bd1\uff09
p903
V/jobs/searchresult.ashx?jl=640&bj=2120500
p904
tp905
(lp906
(V\u82f1\u8bed\u7ffb\u8bd1
p907
V/jobs/searchresult.ashx?jl=640&bj=2120500&sj=268
p908
tp909
a(V\u6cd5\u8bed\u7ffb\u8bd1
p910
V/jobs/searchresult.ashx?jl=640&bj=2120500&sj=271
p911
tp912
a(V\u65e5\u8bed\u7ffb\u8bd1
p913
V/jobs/searchresult.ashx?jl=640&bj=2120500&sj=269
p914
tp915
a(V\u5fb7\u8bed\u7ffb\u8bd1
p916
V/jobs/searchresult.ashx?jl=640&bj=2120500&sj=270
p917
tp918
a(V\u4fc4\u8bed\u7ffb\u8bd1
p919
V/jobs/searchresult.ashx?jl=640&bj=2120500&sj=272
p920
tp921
a(V\u897f\u73ed\u7259\u8bed\u7ffb\u8bd1
p922
V/jobs/searchresult.ashx?jl=640&bj=2120500&sj=630
p923
tp924
a(V\u610f\u5927\u5229\u8bed\u7ffb\u8bd1
p925
V/jobs/searchresult.ashx?jl=640&bj=2120500&sj=631
p926
tp927
a(V\u8461\u8404\u7259\u8bed\u7ffb\u8bd1
p928
V/jobs/searchresult.ashx?jl=640&bj=2120500&sj=632
p929
tp930
a(V\u963f\u62c9\u4f2f\u8bed\u7ffb\u8bd1
p931
V/jobs/searchresult.ashx?jl=640&bj=2120500&sj=633
p932
tp933
a(V\u97e9\u8bed/\u671d\u9c9c\u8bed\u7ffb\u8bd1
p934
V/jobs/searchresult.ashx?jl=640&bj=2120500&sj=273
p935
tp936
a(V\u5176\u4ed6\u8bed\u79cd\u7ffb\u8bd1
p937
V/jobs/searchresult.ashx?jl=640&bj=2120500&sj=274
p938
tp939
as(V\u7269\u4e1a\u7ba1\u7406
p940
V/jobs/searchresult.ashx?jl=640&bj=142000
p941
tp942
(lp943
(V\u7269\u4e1a\u7ecf\u7406/\u4e3b\u7ba1
p944
V/jobs/searchresult.ashx?jl=640&bj=142000&sj=393
p945
tp946
a(V\u7269\u4e1a\u7ba1\u7406\u4e13\u5458/\u52a9\u7406
p947
V/jobs/searchresult.ashx?jl=640&bj=142000&sj=095
p948
tp949
a(V\u7269\u4e1a\u79df\u8d41/\u9500\u552e
p950
V/jobs/searchresult.ashx?jl=640&bj=142000&sj=101
p951
tp952
a(V\u7269\u4e1a\u7ef4\u4fee
p953
V/jobs/searchresult.ashx?jl=640&bj=142000&sj=352
p954
tp955
a(V\u7269\u4e1a\u987e\u95ee
p956
V/jobs/searchresult.ashx?jl=640&bj=142000&sj=712
p957
tp958
a(V\u7269\u4e1a\u62db\u5546\u7ba1\u7406
p959
V/jobs/searchresult.ashx?jl=640&bj=142000&sj=465
p960
tp961
a(V\u76d1\u63a7\u7ef4\u62a4
p962
V/jobs/searchresult.ashx?jl=640&bj=142000&sj=2033
p963
tp964
a(V\u5176\u4ed6
p965
V/jobs/searchresult.ashx?jl=640&bj=142000&sj=569
p966
tp967
as(V\u751f\u4ea7\u7ba1\u7406/\u8fd0\u8425
p968
V/jobs/searchresult.ashx?jl=640&bj=121100
p969
tp970
(lp971
(V\u5de5\u5382\u5382\u957f/\u526f\u5382\u957f
p972
V/jobs/searchresult.ashx?jl=640&bj=121100&sj=061
p973
tp974
a(V\u751f\u4ea7\u603b\u76d1
p975
V/jobs/searchresult.ashx?jl=640&bj=121100&sj=869
p976
tp977
a(V\u751f\u4ea7\u7ecf\u7406/\u8f66\u95f4\u4e3b\u4efb
p978
V/jobs/searchresult.ashx?jl=640&bj=121100&sj=065
p979
tp980
a(V\u751f\u4ea7\u4e3b\u7ba1/\u7763\u5bfc/\u7ec4\u957f
p981
V/jobs/searchresult.ashx?jl=640&bj=121100&sj=064
p982
tp983
a(V\u751f\u4ea7\u8fd0\u8425\u7ba1\u7406
p984
V/jobs/searchresult.ashx?jl=640&bj=121100&sj=932
p985
tp986
a(V\u751f\u4ea7\u9879\u76ee\u7ecf\u7406/\u4e3b\u7ba1
p987
V/jobs/searchresult.ashx?jl=640&bj=121100&sj=063
p988
tp989
a(V\u751f\u4ea7\u9879\u76ee\u5de5\u7a0b\u5e08
p990
V/jobs/searchresult.ashx?jl=640&bj=121100&sj=062
p991
tp992
a(V\u4ea7\u54c1\u7ba1\u7406
p993
V/jobs/searchresult.ashx?jl=640&bj=121100&sj=871
p994
tp995
a(V\u751f\u4ea7\u8ba1\u5212
p996
V/jobs/searchresult.ashx?jl=640&bj=121100&sj=487
p997
tp998
a(V\u5236\u9020\u5de5\u7a0b\u5e08
p999
V/jobs/searchresult.ashx?jl=640&bj=121100&sj=075
p1000
tp1001
a(V\u5de5\u827a/\u5236\u7a0b\u5de5\u7a0b\u5e08
p1002
V/jobs/searchresult.ashx?jl=640&bj=121100&sj=072
p1003
tp1004
a(V\u5de5\u4e1a\u5de5\u7a0b\u5e08
p1005
V/jobs/searchresult.ashx?jl=640&bj=121100&sj=074
p1006
tp1007
a(V\u751f\u4ea7\u8bbe\u5907\u7ba1\u7406
p1008
V/jobs/searchresult.ashx?jl=640&bj=121100&sj=068
p1009
tp1010
a(V\u751f\u4ea7\u7269\u6599\u7ba1\u7406\uff08PMC\uff09
p1011
V/jobs/searchresult.ashx?jl=640&bj=121100&sj=069
p1012
tp1013
a(V\u5305\u88c5\u5de5\u7a0b\u5e08
p1014
V/jobs/searchresult.ashx?jl=640&bj=121100&sj=592
p1015
tp1016
a(V\u6280\u672f\u6587\u6863\u5de5\u7a0b\u5e08
p1017
V/jobs/searchresult.ashx?jl=640&bj=121100&sj=090
p1018
tp1019
a(V\u603b\u5de5\u7a0b\u5e08/\u526f\u603b\u5de5\u7a0b\u5e08
p1020
V/jobs/searchresult.ashx?jl=640&bj=121100&sj=2011
p1021
tp1022
a(V\u751f\u4ea7\u6587\u5458
p1023
V/jobs/searchresult.ashx?jl=640&bj=121100&sj=2012
p1024
tp1025
a(V\u8425\u8fd0\u4e3b\u7ba1
p1026
V/jobs/searchresult.ashx?jl=640&bj=121100&sj=2013
p1027
tp1028
a(V\u8425\u8fd0\u7ecf\u7406
p1029
V/jobs/searchresult.ashx?jl=640&bj=121100&sj=2014
p1030
tp1031
a(V\u8bbe\u5907\u4e3b\u7ba1
p1032
V/jobs/searchresult.ashx?jl=640&bj=121100&sj=2015
p1033
tp1034
a(V\u5316\u9a8c\u5e08
p1035
V/jobs/searchresult.ashx?jl=640&bj=121100&sj=2016
p1036
tp1037
a(V\u751f\u4ea7\u8ddf\u5355
p1038
V/jobs/searchresult.ashx?jl=640&bj=121100&sj=2017
p1039
tp1040
a(V\u5176\u4ed6
p1041
V/jobs/searchresult.ashx?jl=640&bj=121100&sj=077
p1042
tp1043
as(V\u519c/\u6797/\u7267/\u6e14\u4e1a
p1044
V/jobs/searchresult.ashx?jl=640&bj=100000
p1045
tp1046
(lp1047
(V\u63d2\u82b1\u8bbe\u8ba1\u5e08
p1048
V/jobs/searchresult.ashx?jl=640&bj=100000&sj=2000
p1049
tp1050
a(V\u519c\u827a\u5e08
p1051
V/jobs/searchresult.ashx?jl=640&bj=100000&sj=656
p1052
tp1053
a(V\u6797\u4e1a\u6280\u672f\u4eba\u5458
p1054
V/jobs/searchresult.ashx?jl=640&bj=100000&sj=914
p1055
tp1056
a(V\u56ed\u827a\u5e08
p1057
V/jobs/searchresult.ashx?jl=640&bj=100000&sj=915
p1058
tp1059
a(V\u755c\u7267\u5e08
p1060
V/jobs/searchresult.ashx?jl=640&bj=100000&sj=657
p1061
tp1062
a(V\u52a8\u7269\u80b2\u79cd/\u517b\u6b96
p1063
V/jobs/searchresult.ashx?jl=640&bj=100000&sj=655
p1064
tp1065
a(V\u52a8\u7269\u8425\u517b/\u9972\u6599\u7814\u53d1
p1066
V/jobs/searchresult.ashx?jl=640&bj=100000&sj=913
p1067
tp1068
a(V\u9972\u6599\u9500\u552e
p1069
V/jobs/searchresult.ashx?jl=640&bj=100000&sj=654
p1070
tp1071
a(V\u5176\u4ed6
p1072
V/jobs/searchresult.ashx?jl=640&bj=100000&sj=264
p1073
tp1074
as(V\u516c\u52a1\u5458/\u4e8b\u4e1a\u5355\u4f4d/\u79d1\u7814\u673a\u6784
p1075
V/jobs/searchresult.ashx?jl=640&bj=200100
p1076
tp1077
(lp1078
(V\u516c\u52a1\u5458/\u4e8b\u4e1a\u5355\u4f4d\u4eba\u5458
p1079
V/jobs/searchresult.ashx?jl=640&bj=200100&sj=305
p1080
tp1081
a(V\u79d1\u7814\u7ba1\u7406\u4eba\u5458
p1082
V/jobs/searchresult.ashx?jl=640&bj=200100&sj=362
p1083
tp1084
a(V\u79d1\u7814\u4eba\u5458
p1085
V/jobs/searchresult.ashx?jl=640&bj=200100&sj=255
p1086
tp1087
a(V\u5176\u4ed6
p1088
V/jobs/searchresult.ashx?jl=640&bj=200100&sj=306
p1089
tp1090
as(V\u4e92\u8054\u7f51\u4ea7\u54c1/\u8fd0\u8425\u7ba1\u7406
p1091
V/jobs/searchresult.ashx?jl=640&bj=160200
p1092
tp1093
(lp1094
(V\u4e92\u8054\u7f51\u4ea7\u54c1\u7ecf\u7406/\u4e3b\u7ba1
p1095
V/jobs/searchresult.ashx?jl=640&bj=160200&sj=316
p1096
tp1097
a(V\u4e92\u8054\u7f51\u4ea7\u54c1\u4e13\u5458/\u52a9\u7406
p1098
V/jobs/searchresult.ashx?jl=640&bj=160200&sj=675
p1099
tp1100
a(V\u7535\u5b50\u5546\u52a1\u7ecf\u7406/\u4e3b\u7ba1
p1101
V/jobs/searchresult.ashx?jl=640&bj=160200&sj=676
p1102
tp1103
a(V\u7535\u5b50\u5546\u52a1\u4e13\u5458/\u52a9\u7406
p1104
V/jobs/searchresult.ashx?jl=640&bj=160200&sj=677
p1105
tp1106
a(V\u7f51\u7edc\u8fd0\u8425\u7ba1\u7406
p1107
V/jobs/searchresult.ashx?jl=640&bj=160200&sj=052
p1108
tp1109
a(V\u7f51\u7edc\u8fd0\u8425\u4e13\u5458/\u52a9\u7406
p1110
V/jobs/searchresult.ashx?jl=640&bj=160200&sj=670
p1111
tp1112
a(V\u7f51\u7ad9\u7f16\u8f91
p1113
V/jobs/searchresult.ashx?jl=640&bj=160200&sj=056
p1114
tp1115
a(VSEO/SEM
p1116
V/jobs/searchresult.ashx?jl=640&bj=160200&sj=552
p1117
tp1118
a(V\u4ea7\u54c1\u603b\u76d1
p1119
V/jobs/searchresult.ashx?jl=640&bj=160200&sj=2046
p1120
tp1121
a(V\u8fd0\u8425\u603b\u76d1
p1122
V/jobs/searchresult.ashx?jl=640&bj=160200&sj=2047
p1123
tp1124
a(V\u7f51\u7ad9\u8fd0\u8425\u603b\u76d1/\u7ecf\u7406
p1125
V/jobs/searchresult.ashx?jl=640&bj=160200&sj=2048
p1126
tp1127
a(V\u7535\u5b50\u5546\u52a1\u603b\u76d1
p1128
V/jobs/searchresult.ashx?jl=640&bj=160200&sj=2049
p1129
tp1130
a(V\u65b0\u5a92\u4f53\u8fd0\u8425
p1131
V/jobs/searchresult.ashx?jl=640&bj=160200&sj=2050
p1132
tp1133
a(V\u7f51\u5e97\u5e97\u957f
p1134
V/jobs/searchresult.ashx?jl=640&bj=160200&sj=2051
p1135
tp1136
a(V\u7f51\u5e97\u63a8\u5e7f
p1137
V/jobs/searchresult.ashx?jl=640&bj=160200&sj=2052
p1138
tp1139
a(V\u7f51\u5e97\u5ba2\u670d
p1140
V/jobs/searchresult.ashx?jl=640&bj=160200&sj=2053
p1141
tp1142
a(V\u7f51\u5e97\u8fd0\u8425
p1143
V/jobs/searchresult.ashx?jl=640&bj=160200&sj=2054
p1144
tp1145
a(V\u7f51\u5e97\u7ba1\u7406\u5458
p1146
V/jobs/searchresult.ashx?jl=640&bj=160200&sj=2055
p1147
tp1148
a(V\u8fd0\u8425\u4e3b\u7ba1/\u4e13\u5458
p1149
V/jobs/searchresult.ashx?jl=640&bj=160200&sj=2056
p1150
tp1151
a(V\u5fae\u4fe1\u63a8\u5e7f
p1152
V/jobs/searchresult.ashx?jl=640&bj=160200&sj=2057
p1153
tp1154
a(V\u6dd8\u5b9d/\u5fae\u4fe1\u8fd0\u8425\u4e13\u5458/\u4e3b\u7ba1
p1155
V/jobs/searchresult.ashx?jl=640&bj=160200&sj=2058
p1156
tp1157
a(V\u4ea7\u54c1\u8fd0\u8425
p1158
V/jobs/searchresult.ashx?jl=640&bj=160200&sj=2059
p1159
tp1160
a(V\u6570\u636e\u8fd0\u8425
p1161
V/jobs/searchresult.ashx?jl=640&bj=160200&sj=2060
p1162
tp1163
a(V\u5e02\u573a\u8fd0\u8425
p1164
V/jobs/searchresult.ashx?jl=640&bj=160200&sj=2061
p1165
tp1166
a(V\u5185\u5bb9\u8fd0\u8425
p1167
V/jobs/searchresult.ashx?jl=640&bj=160200&sj=2062
p1168
tp1169
a(V\u5176\u4ed6
p1170
V/jobs/searchresult.ashx?jl=640&bj=160200&sj=556
p1171
tp1172
as(V\u91c7\u8d2d/\u8d38\u6613
p1173
V/jobs/searchresult.ashx?jl=640&bj=4083000
p1174
tp1175
(lp1176
(V\u91c7\u8d2d\u603b\u76d1
p1177
V/jobs/searchresult.ashx?jl=640&bj=4083000&sj=235
p1178
tp1179
a(V\u91c7\u8d2d\u7ecf\u7406/\u4e3b\u7ba1
p1180
V/jobs/searchresult.ashx?jl=640&bj=4083000&sj=550
p1181
tp1182
a(V\u91c7\u8d2d\u4e13\u5458/\u52a9\u7406
p1183
V/jobs/searchresult.ashx?jl=640&bj=4083000&sj=236
p1184
tp1185
a(V\u4f9b\u5e94\u5546\u5f00\u53d1
p1186
V/jobs/searchresult.ashx?jl=640&bj=4083000&sj=663
p1187
tp1188
a(V\u4f9b\u5e94\u94fe\u7ba1\u7406
p1189
V/jobs/searchresult.ashx?jl=640&bj=4083000&sj=488
p1190
tp1191
a(V\u4e70\u624b
p1192
V/jobs/searchresult.ashx?jl=640&bj=4083000&sj=664
p1193
tp1194
a(V\u5916\u8d38/\u8d38\u6613\u7ecf\u7406/\u4e3b\u7ba1
p1195
V/jobs/searchresult.ashx?jl=640&bj=4083000&sj=312
p1196
tp1197
a(V\u5916\u8d38/\u8d38\u6613\u4e13\u5458/\u52a9\u7406
p1198
V/jobs/searchresult.ashx?jl=640&bj=4083000&sj=237
p1199
tp1200
a(V\u8d38\u6613\u8ddf\u5355
p1201
V/jobs/searchresult.ashx?jl=640&bj=4083000&sj=238
p1202
tp1203
a(V\u62a5\u5173\u5458
p1204
V/jobs/searchresult.ashx?jl=640&bj=4083000&sj=239
p1205
tp1206
a(V\u4e1a\u52a1\u8ddf\u5355\u7ecf\u7406
p1207
V/jobs/searchresult.ashx?jl=640&bj=4083000&sj=2177
p1208
tp1209
a(V\u9ad8\u7ea7\u4e1a\u52a1\u8ddf\u5355
p1210
V/jobs/searchresult.ashx?jl=640&bj=4083000&sj=2178
p1211
tp1212
a(V\u52a9\u7406\u4e1a\u52a1\u8ddf\u5355
p1213
V/jobs/searchresult.ashx?jl=640&bj=4083000&sj=2179
p1214
tp1215
a(V\u56fd\u9645\u8d38\u6613\u4e3b\u7ba1/\u4e13\u5458
p1216
V/jobs/searchresult.ashx?jl=640&bj=4083000&sj=2180
p1217
tp1218
a(V\u5176\u4ed6
p1219
V/jobs/searchresult.ashx?jl=640&bj=4083000&sj=240
p1220
tp1221
as(V\u4eba\u529b\u8d44\u6e90
p1222
V/jobs/searchresult.ashx?jl=640&bj=5002000
p1223
tp1224
(lp1225
(V\u4eba\u529b\u8d44\u6e90\u603b\u76d1
p1226
V/jobs/searchresult.ashx?jl=640&bj=5002000&sj=120
p1227
tp1228
a(V\u4eba\u529b\u8d44\u6e90\u7ecf\u7406
p1229
V/jobs/searchresult.ashx?jl=640&bj=5002000&sj=121
p1230
tp1231
a(V\u4eba\u529b\u8d44\u6e90\u4e3b\u7ba1
p1232
V/jobs/searchresult.ashx?jl=640&bj=5002000&sj=618
p1233
tp1234
a(V\u4eba\u529b\u8d44\u6e90\u4e13\u5458/\u52a9\u7406
p1235
V/jobs/searchresult.ashx?jl=640&bj=5002000&sj=122
p1236
tp1237
a(V\u57f9\u8bad\u7ecf\u7406/\u4e3b\u7ba1
p1238
V/jobs/searchresult.ashx?jl=640&bj=5002000&sj=125
p1239
tp1240
a(V\u57f9\u8bad\u4e13\u5458/\u52a9\u7406
p1241
V/jobs/searchresult.ashx?jl=640&bj=5002000&sj=126
p1242
tp1243
a(V\u62db\u8058\u7ecf\u7406/\u4e3b\u7ba1
p1244
V/jobs/searchresult.ashx?jl=640&bj=5002000&sj=123
p1245
tp1246
a(V\u62db\u8058\u4e13\u5458/\u52a9\u7406
p1247
V/jobs/searchresult.ashx?jl=640&bj=5002000&sj=124
p1248
tp1249
a(V\u85aa\u916c\u798f\u5229\u7ecf\u7406/\u4e3b\u7ba1
p1250
V/jobs/searchresult.ashx?jl=640&bj=5002000&sj=127
p1251
tp1252
a(V\u85aa\u916c\u798f\u5229\u4e13\u5458/\u52a9\u7406
p1253
V/jobs/searchresult.ashx?jl=640&bj=5002000&sj=780
p1254
tp1255
a(V\u7ee9\u6548\u8003\u6838\u7ecf\u7406/\u4e3b\u7ba1
p1256
V/jobs/searchresult.ashx?jl=640&bj=5002000&sj=619
p1257
tp1258
a(V\u7ee9\u6548\u8003\u6838\u4e13\u5458/\u52a9\u7406
p1259
V/jobs/searchresult.ashx?jl=640&bj=5002000&sj=778
p1260
tp1261
a(V\u5458\u5de5\u5173\u7cfb/\u4f01\u4e1a\u6587\u5316/\u5de5\u4f1a
p1262
V/jobs/searchresult.ashx?jl=640&bj=5002000&sj=620
p1263
tp1264
a(V\u4f01\u4e1a\u57f9\u8bad\u5e08/\u8bb2\u5e08
p1265
V/jobs/searchresult.ashx?jl=640&bj=5002000&sj=858
p1266
tp1267
a(V\u4eba\u4e8b\u4fe1\u606f\u7cfb\u7edf(HRIS)\u7ba1\u7406
p1268
V/jobs/searchresult.ashx?jl=640&bj=5002000&sj=779
p1269
tp1270
a(V\u730e\u5934\u987e\u95ee/\u52a9\u7406
p1271
V/jobs/searchresult.ashx?jl=640&bj=5002000&sj=128
p1272
tp1273
a(V\u5176\u4ed6
p1274
V/jobs/searchresult.ashx?jl=640&bj=5002000&sj=130
p1275
tp1276
as(V\u673a\u68b0\u8bbe\u8ba1/\u5236\u9020/\u7ef4\u4fee
p1277
V/jobs/searchresult.ashx?jl=640&bj=5003000
p1278
tp1279
(lp1280
(V\u5de5\u7a0b\u673a\u68b0\u7ecf\u7406
p1281
V/jobs/searchresult.ashx?jl=640&bj=5003000&sj=332
p1282
tp1283
a(V\u5de5\u7a0b\u673a\u68b0\u4e3b\u7ba1
p1284
V/jobs/searchresult.ashx?jl=640&bj=5003000&sj=333
p1285
tp1286
a(V\u673a\u68b0\u8bbe\u5907\u7ecf\u7406
p1287
V/jobs/searchresult.ashx?jl=640&bj=5003000&sj=729
p1288
tp1289
a(V\u673a\u68b0\u8bbe\u5907\u5de5\u7a0b\u5e08
p1290
V/jobs/searchresult.ashx?jl=640&bj=5003000&sj=583
p1291
tp1292
a(V\u673a\u68b0\u5de5\u7a0b\u5e08
p1293
V/jobs/searchresult.ashx?jl=640&bj=5003000&sj=029
p1294
tp1295
a(V\u673a\u68b0\u8bbe\u8ba1\u5e08
p1296
V/jobs/searchresult.ashx?jl=640&bj=5003000&sj=093
p1297
tp1298
a(V\u673a\u68b0\u5236\u56fe\u5458
p1299
V/jobs/searchresult.ashx?jl=640&bj=5003000&sj=334
p1300
tp1301
a(V\u673a\u68b0\u7814\u53d1\u5de5\u7a0b\u5e08
p1302
V/jobs/searchresult.ashx?jl=640&bj=5003000&sj=584
p1303
tp1304
a(V\u673a\u68b0\u7ed3\u6784\u5de5\u7a0b\u5e08
p1305
V/jobs/searchresult.ashx?jl=640&bj=5003000&sj=586
p1306
tp1307
a(V\u673a\u68b0\u5de5\u827a/\u5236\u7a0b\u5de5\u7a0b\u5e08
p1308
V/jobs/searchresult.ashx?jl=640&bj=5003000&sj=585
p1309
tp1310
a(V\u6c14\u52a8\u5de5\u7a0b\u5e08
p1311
V/jobs/searchresult.ashx?jl=640&bj=5003000&sj=587
p1312
tp1313
a(VCNC/\u6570\u63a7\u5de5\u7a0b\u5e08
p1314
V/jobs/searchresult.ashx?jl=640&bj=5003000&sj=591
p1315
tp1316
a(V\u6a21\u5177\u5de5\u7a0b\u5e08
p1317
V/jobs/searchresult.ashx?jl=640&bj=5003000&sj=588
p1318
tp1319
a(V\u5939\u5177\u5de5\u7a0b\u5e08
p1320
V/jobs/searchresult.ashx?jl=640&bj=5003000&sj=873
p1321
tp1322
a(V\u6ce8\u5851\u5de5\u7a0b\u5e08
p1323
V/jobs/searchresult.ashx?jl=640&bj=5003000&sj=874
p1324
tp1325
a(V\u94f8\u9020/\u953b\u9020\u5de5\u7a0b\u5e08/\u6280\u5e08
p1326
V/jobs/searchresult.ashx?jl=640&bj=5003000&sj=590
p1327
tp1328
a(V\u673a\u7535\u5de5\u7a0b\u5e08
p1329
V/jobs/searchresult.ashx?jl=640&bj=5003000&sj=732
p1330
tp1331
a(V\u6750\u6599\u5de5\u7a0b\u5e08
p1332
V/jobs/searchresult.ashx?jl=640&bj=5003000&sj=593
p1333
tp1334
a(V\u673a\u68b0\u7ef4\u4fee/\u4fdd\u517b
p1335
V/jobs/searchresult.ashx?jl=640&bj=5003000&sj=589
p1336
tp1337
a(V\u98de\u673a\u8bbe\u8ba1\u4e0e\u5236\u9020
p1338
V/jobs/searchresult.ashx?jl=640&bj=5003000&sj=735
p1339
tp1340
a(V\u98de\u673a\u7ef4\u4fee/\u4fdd\u517b
p1341
V/jobs/searchresult.ashx?jl=640&bj=5003000&sj=734
p1342
tp1343
a(V\u5217\u8f66\u8bbe\u8ba1\u4e0e\u5236\u9020
p1344
V/jobs/searchresult.ashx?jl=640&bj=5003000&sj=595
p1345
tp1346
a(V\u5217\u8f66\u7ef4\u4fee/\u4fdd\u517b
p1347
V/jobs/searchresult.ashx?jl=640&bj=5003000&sj=920
p1348
tp1349
a(V\u8239\u8236\u8bbe\u8ba1\u4e0e\u5236\u9020
p1350
V/jobs/searchresult.ashx?jl=640&bj=5003000&sj=923
p1351
tp1352
a(V\u8239\u8236\u7ef4\u4fee/\u4fdd\u517b
p1353
V/jobs/searchresult.ashx?jl=640&bj=5003000&sj=922
p1354
tp1355
a(V\u6280\u672f\u7814\u53d1\u5de5\u7a0b\u5e08
p1356
V/jobs/searchresult.ashx?jl=640&bj=5003000&sj=2184
p1357
tp1358
a(V\u6280\u672f\u7814\u53d1\u7ecf\u7406/\u4e3b\u7ba1
p1359
V/jobs/searchresult.ashx?jl=640&bj=5003000&sj=2185
p1360
tp1361
a(V\u4ea7\u54c1\u7b56\u5212\u5de5\u7a0b\u5e08
p1362
V/jobs/searchresult.ashx?jl=640&bj=5003000&sj=2186
p1363
tp1364
a(V\u9879\u76ee\u7ba1\u7406
p1365
V/jobs/searchresult.ashx?jl=640&bj=5003000&sj=2187
p1366
tp1367
a(V\u5b9e\u9a8c\u5ba4\u8d1f\u8d23\u4eba/\u5de5\u7a0b\u5e08
p1368
V/jobs/searchresult.ashx?jl=640&bj=5003000&sj=2188
p1369
tp1370
a(V\u5de5\u4e1a\u5de5\u7a0b\u5e08
p1371
V/jobs/searchresult.ashx?jl=640&bj=5003000&sj=2189
p1372
tp1373
a(V\u7ef4\u4fee\u7ecf\u7406/\u4e3b\u7ba1
p1374
V/jobs/searchresult.ashx?jl=640&bj=5003000&sj=2190
p1375
tp1376
a(V\u88c5\u914d\u5de5\u7a0b\u5e08/\u5ba2\u6237\u7ecf\u7406
p1377
V/jobs/searchresult.ashx?jl=640&bj=5003000&sj=2191
p1378
tp1379
a(V\u710a\u63a5\u5de5\u7a0b\u5e08/\u6280\u5e08
p1380
V/jobs/searchresult.ashx?jl=640&bj=5003000&sj=2192
p1381
tp1382
a(V\u51b2\u538b\u5de5\u7a0b\u5e08/\u6280\u5e08
p1383
V/jobs/searchresult.ashx?jl=640&bj=5003000&sj=2193
p1384
tp1385
a(V\u9505\u7089\u5de5\u7a0b\u5e08/\u6280\u5e08
p1386
V/jobs/searchresult.ashx?jl=640&bj=5003000&sj=2194
p1387
tp1388
a(V\u5149\u4f0f\u7cfb\u7edf\u5de5\u7a0b\u5e08
p1389
V/jobs/searchresult.ashx?jl=640&bj=5003000&sj=2195
p1390
tp1391
a(V\u6c7d\u8f66/\u6469\u6258\u8f66\u5de5\u7a0b\u5e08
p1392
V/jobs/searchresult.ashx?jl=640&bj=5003000&sj=2196
p1393
tp1394
a(V\u8f68\u9053\u4ea4\u901a\u5de5\u7a0b\u5e08/\u6280\u672f\u5458
p1395
V/jobs/searchresult.ashx?jl=640&bj=5003000&sj=2197
p1396
tp1397
a(V\u6570\u63a7\u64cd\u4f5c
p1398
V/jobs/searchresult.ashx?jl=640&bj=5003000&sj=2198
p1399
tp1400
a(V\u6570\u63a7\u7f16\u7a0b
p1401
V/jobs/searchresult.ashx?jl=640&bj=5003000&sj=2199
p1402
tp1403
a(V\u65e0\u635f\u68c0\u6d4b\u5de5\u7a0b\u5e08
p1404
V/jobs/searchresult.ashx?jl=640&bj=5003000&sj=2200
p1405
tp1406
a(V\u6d6e\u6cd5\u64cd\u4f5c\u5de5(\u73bb\u7483\u6280\u672f)
p1407
V/jobs/searchresult.ashx?jl=640&bj=5003000&sj=2201
p1408
tp1409
a(V\u5730\u94c1\u8f68\u9053\u8bbe\u8ba1
p1410
V/jobs/searchresult.ashx?jl=640&bj=5003000&sj=2202
p1411
tp1412
a(V\u673a\u4fee\u5de5
p1413
V/jobs/searchresult.ashx?jl=640&bj=5003000&sj=2203
p1414
tp1415
a(V\u5de5\u88c5\u5de5\u7a0b\u5e08
p1416
V/jobs/searchresult.ashx?jl=640&bj=5003000&sj=2204
p1417
tp1418
a(V\u5176\u4ed6
p1419
V/jobs/searchresult.ashx?jl=640&bj=5003000&sj=335
p1420
tp1421
as(V\u5176\u4ed6
p1422
V/jobs/searchresult.ashx?jl=640&bj=300200
p1423
tp1424
(lp1425
(V\u5176\u4ed6
p1426
V/jobs/searchresult.ashx?jl=640&bj=300200&sj=304
p1427
tp1428
as(V\u5ba2\u670d/\u552e\u524d/\u552e\u540e\u6280\u672f\u652f\u6301
p1429
V/jobs/searchresult.ashx?jl=640&bj=4000000
p1430
tp1431
(lp1432
(V\u5ba2\u6237\u670d\u52a1\u603b\u76d1
p1433
V/jobs/searchresult.ashx?jl=640&bj=4000000&sj=391
p1434
tp1435
a(V\u5ba2\u6237\u670d\u52a1\u7ecf\u7406
p1436
V/jobs/searchresult.ashx?jl=640&bj=4000000&sj=390
p1437
tp1438
a(V\u5ba2\u6237\u670d\u52a1\u4e3b\u7ba1
p1439
V/jobs/searchresult.ashx?jl=640&bj=4000000&sj=549
p1440
tp1441
a(V\u5ba2\u6237\u670d\u52a1\u4e13\u5458/\u52a9\u7406
p1442
V/jobs/searchresult.ashx?jl=640&bj=4000000&sj=257
p1443
tp1444
a(V\u5ba2\u6237\u5173\u7cfb/\u6295\u8bc9\u534f\u8c03\u4eba\u5458
p1445
V/jobs/searchresult.ashx?jl=640&bj=4000000&sj=261
p1446
tp1447
a(V\u5ba2\u6237\u54a8\u8be2\u70ed\u7ebf/\u547c\u53eb\u4e2d\u5fc3\u4eba\u5458
p1448
V/jobs/searchresult.ashx?jl=640&bj=4000000&sj=260
p1449
tp1450
a(V\u7f51\u7edc/\u5728\u7ebf\u5ba2\u670d
p1451
V/jobs/searchresult.ashx?jl=640&bj=4000000&sj=846
p1452
tp1453
a(V\u552e\u524d/\u552e\u540e\u6280\u672f\u652f\u6301\u7ba1\u7406
p1454
V/jobs/searchresult.ashx?jl=640&bj=4000000&sj=258
p1455
tp1456
a(V\u552e\u524d/\u552e\u540e\u6280\u672f\u652f\u6301\u5de5\u7a0b\u5e08
p1457
V/jobs/searchresult.ashx?jl=640&bj=4000000&sj=392
p1458
tp1459
a(VVIP\u4e13\u5458
p1460
V/jobs/searchresult.ashx?jl=640&bj=4000000&sj=2147
p1461
tp1462
a(V\u547c\u53eb\u4e2d\u5fc3\u5ba2\u670d
p1463
V/jobs/searchresult.ashx?jl=640&bj=4000000&sj=2148
p1464
tp1465
a(V\u5176\u4ed6
p1466
V/jobs/searchresult.ashx?jl=640&bj=4000000&sj=262
p1467
tp1468
as(V\u7269\u6d41/\u4ed3\u50a8
p1469
V/jobs/searchresult.ashx?jl=640&bj=4010400
p1470
tp1471
(lp1472
(V\u7269\u6d41\u603b\u76d1
p1473
V/jobs/searchresult.ashx?jl=640&bj=4010400&sj=241
p1474
tp1475
a(V\u7269\u6d41\u7ecf\u7406/\u4e3b\u7ba1
p1476
V/jobs/searchresult.ashx?jl=640&bj=4010400&sj=597
p1477
tp1478
a(V\u7269\u6d41\u4e13\u5458/\u52a9\u7406
p1479
V/jobs/searchresult.ashx?jl=640&bj=4010400&sj=242
p1480
tp1481
a(V\u8d27\u8fd0\u4ee3\u7406
p1482
V/jobs/searchresult.ashx?jl=640&bj=4010400&sj=740
p1483
tp1484
a(V\u8fd0\u8f93\u7ecf\u7406/\u4e3b\u7ba1
p1485
V/jobs/searchresult.ashx?jl=640&bj=4010400&sj=353
p1486
tp1487
a(V\u5feb\u9012\u5458/\u901f\u9012\u5458
p1488
V/jobs/searchresult.ashx?jl=640&bj=4010400&sj=247
p1489
tp1490
a(V\u6c34\u8fd0/\u7a7a\u8fd0/\u9646\u8fd0\u64cd\u4f5c
p1491
V/jobs/searchresult.ashx?jl=640&bj=4010400&sj=746
p1492
tp1493
a(V\u96c6\u88c5\u7bb1\u4e1a\u52a1
p1494
V/jobs/searchresult.ashx?jl=640&bj=4010400&sj=741
p1495
tp1496
a(V\u62a5\u5173\u5458
p1497
V/jobs/searchresult.ashx?jl=640&bj=4010400&sj=742
p1498
tp1499
a(V\u5355\u8bc1\u5458
p1500
V/jobs/searchresult.ashx?jl=640&bj=4010400&sj=490
p1501
tp1502
a(V\u4ed3\u5e93\u7ecf\u7406/\u4e3b\u7ba1
p1503
V/jobs/searchresult.ashx?jl=640&bj=4010400&sj=243
p1504
tp1505
a(V\u4ed3\u5e93/\u7269\u6599\u7ba1\u7406\u5458
p1506
V/jobs/searchresult.ashx?jl=640&bj=4010400&sj=244
p1507
tp1508
a(V\u7406\u8d27/\u5206\u62e3/\u6253\u5305
p1509
V/jobs/searchresult.ashx?jl=640&bj=4010400&sj=745
p1510
tp1511
a(V\u7269\u6d41/\u4ed3\u50a8\u8c03\u5ea6
p1512
V/jobs/searchresult.ashx?jl=640&bj=4010400&sj=394
p1513
tp1514
a(V\u7269\u6d41/\u4ed3\u50a8\u9879\u76ee\u7ba1\u7406
p1515
V/jobs/searchresult.ashx?jl=640&bj=4010400&sj=744
p1516
tp1517
a(V\u642c\u8fd0\u5de5
p1518
V/jobs/searchresult.ashx?jl=640&bj=4010400&sj=491
p1519
tp1520
a(V\u96c6\u88c5\u7bb1\u7ef4\u62a4
p1521
V/jobs/searchresult.ashx?jl=640&bj=4010400&sj=2159
p1522
tp1523
a(V\u96c6\u88c5\u7bb1\u64cd\u4f5c
p1524
V/jobs/searchresult.ashx?jl=640&bj=4010400&sj=2160
p1525
tp1526
a(V\u7269\u6d41\u9500\u552e
p1527
V/jobs/searchresult.ashx?jl=640&bj=4010400&sj=2161
p1528
tp1529
a(V\u4f9b\u5e94\u94fe\u603b\u76d1
p1530
V/jobs/searchresult.ashx?jl=640&bj=4010400&sj=2162
p1531
tp1532
a(V\u4f9b\u5e94\u94fe\u7ecf\u7406/\u4e3b\u7ba1
p1533
V/jobs/searchresult.ashx?jl=640&bj=4010400&sj=2163
p1534
tp1535
a(V\u7269\u6599\u7ecf\u7406
p1536
V/jobs/searchresult.ashx?jl=640&bj=4010400&sj=2164
p1537
tp1538
a(V\u7269\u6599\u4e3b\u7ba1/\u4e13\u5458
p1539
V/jobs/searchresult.ashx?jl=640&bj=4010400&sj=2165
p1540
tp1541
a(V\u9879\u76ee\u7ecf\u7406/\u4e3b\u7ba1
p1542
V/jobs/searchresult.ashx?jl=640&bj=4010400&sj=2166
p1543
tp1544
a(V\u6d77\u5173\u4e8b\u52a1\u7ba1\u7406
p1545
V/jobs/searchresult.ashx?jl=640&bj=4010400&sj=2167
p1546
tp1547
a(V\u8239\u52a1/\u7a7a\u8fd0\u9646\u8fd0\u64cd\u4f5c
p1548
V/jobs/searchresult.ashx?jl=640&bj=4010400&sj=2168
p1549
tp1550
a(V\u8ba2\u5355\u5904\u7406\u5458
p1551
V/jobs/searchresult.ashx?jl=640&bj=4010400&sj=2169
p1552
tp1553
a(V\u6c34\u8fd0/\u9646\u8fd0/\u7a7a\u8fd0\u9500\u552e
p1554
V/jobs/searchresult.ashx?jl=640&bj=4010400&sj=2170
p1555
tp1556
a(V\u5176\u4ed6
p1557
V/jobs/searchresult.ashx?jl=640&bj=4010400&sj=598
p1558
tp1559
as(V\u8d28\u91cf\u7ba1\u7406/\u5b89\u5168\u9632\u62a4
p1560
V/jobs/searchresult.ashx?jl=640&bj=2023405
p1561
tp1562
(lp1563
(V\u8d28\u91cf\u7ba1\u7406/\u6d4b\u8bd5\u7ecf\u7406
p1564
V/jobs/searchresult.ashx?jl=640&bj=2023405&sj=249
p1565
tp1566
a(V\u8d28\u91cf\u7ba1\u7406/\u6d4b\u8bd5\u4e3b\u7ba1
p1567
V/jobs/searchresult.ashx?jl=640&bj=2023405&sj=250
p1568
tp1569
a(V\u8d28\u91cf\u7ba1\u7406/\u6d4b\u8bd5\u5de5\u7a0b\u5e08
p1570
V/jobs/searchresult.ashx?jl=640&bj=2023405&sj=251
p1571
tp1572
a(V\u8d28\u91cf\u68c0\u9a8c\u5458/\u6d4b\u8bd5\u5458
p1573
V/jobs/searchresult.ashx?jl=640&bj=2023405&sj=252
p1574
tp1575
a(V\u5316\u9a8c/\u68c0\u9a8c
p1576
V/jobs/searchresult.ashx?jl=640&bj=2023405&sj=067
p1577
tp1578
a(V\u8ba4\u8bc1/\u4f53\u7cfb\u5de5\u7a0b\u5e08/\u5ba1\u6838\u5458
p1579
V/jobs/searchresult.ashx?jl=640&bj=2023405&sj=253
p1580
tp1581
a(V\u73af\u5883/\u5065\u5eb7/\u5b89\u5168\u7ecf\u7406/\u4e3b\u7ba1
p1582
V/jobs/searchresult.ashx?jl=640&bj=2023405&sj=807
p1583
tp1584
a(V\u73af\u5883/\u5065\u5eb7/\u5b89\u5168\u5de5\u7a0b\u5e08
p1585
V/jobs/searchresult.ashx?jl=640&bj=2023405&sj=529
p1586
tp1587
a(V\u4f9b\u5e94\u5546/\u91c7\u8d2d\u8d28\u91cf\u7ba1\u7406
p1588
V/jobs/searchresult.ashx?jl=640&bj=2023405&sj=330
p1589
tp1590
a(V\u5b89\u5168\u7ba1\u7406
p1591
V/jobs/searchresult.ashx?jl=640&bj=2023405&sj=331
p1592
tp1593
a(V\u5b89\u5168\u6d88\u9632
p1594
V/jobs/searchresult.ashx?jl=640&bj=2023405&sj=384
p1595
tp1596
a(V\u53ef\u9760\u5ea6\u5de5\u7a0b\u5e08
p1597
V/jobs/searchresult.ashx?jl=640&bj=2023405&sj=2081
p1598
tp1599
a(V\u6545\u969c\u5206\u6790\u5de5\u7a0b\u5e08
p1600
V/jobs/searchresult.ashx?jl=640&bj=2023405&sj=2082
p1601
tp1602
a(V\u91c7\u8d2d\u6750\u6599/\u8bbe\u5907\u7ba1\u7406
p1603
V/jobs/searchresult.ashx?jl=640&bj=2023405&sj=2083
p1604
tp1605
a(V\u5176\u4ed6
p1606
V/jobs/searchresult.ashx?jl=640&bj=2023405&sj=254
p1607
tp1608
as(V\u5546\u8d85/\u9152\u5e97/\u5a31\u4e50\u7ba1\u7406/\u670d\u52a1
p1609
V/jobs/searchresult.ashx?jl=640&bj=5005000
p1610
tp1611
(lp1612
(V\u5e97\u957f/\u5356\u573a\u7ba1\u7406
p1613
V/jobs/searchresult.ashx?jl=640&bj=5005000&sj=895
p1614
tp1615
a(V\u697c\u9762\u7ba1\u7406
p1616
V/jobs/searchresult.ashx?jl=640&bj=5005000&sj=016
p1617
tp1618
a(V\u54c1\u724c/\u8fde\u9501\u62db\u5546\u7ba1\u7406
p1619
V/jobs/searchresult.ashx?jl=640&bj=5005000&sj=493
p1620
tp1621
a(V\u5927\u5802\u7ecf\u7406/\u9886\u73ed
p1622
V/jobs/searchresult.ashx?jl=640&bj=5005000&sj=276
p1623
tp1624
a(V\u9152\u5e97\u7ba1\u7406
p1625
V/jobs/searchresult.ashx?jl=640&bj=5005000&sj=281
p1626
tp1627
a(V\u5ba2\u623f\u7ba1\u7406
p1628
V/jobs/searchresult.ashx?jl=640&bj=5005000&sj=636
p1629
tp1630
a(V\u6536\u94f6\u4e3b\u7ba1
p1631
V/jobs/searchresult.ashx?jl=640&bj=5005000&sj=794
p1632
tp1633
a(V\u6536\u94f6\u5458
p1634
V/jobs/searchresult.ashx?jl=640&bj=5005000&sj=354
p1635
tp1636
a(V\u5e97\u5458/\u8425\u4e1a\u5458/\u5bfc\u8d2d\u5458
p1637
V/jobs/searchresult.ashx?jl=640&bj=5005000&sj=017
p1638
tp1639
a(V\u7406\u8d27\u5458
p1640
V/jobs/searchresult.ashx?jl=640&bj=5005000&sj=355
p1641
tp1642
a(V\u4fc3\u9500\u4e3b\u7ba1/\u7763\u5bfc
p1643
V/jobs/searchresult.ashx?jl=640&bj=5005000&sj=896
p1644
tp1645
a(V\u4fc3\u9500\u5458
p1646
V/jobs/searchresult.ashx?jl=640&bj=5005000&sj=173
p1647
tp1648
a(V\u54c1\u7c7b\u7ba1\u7406
p1649
V/jobs/searchresult.ashx?jl=640&bj=5005000&sj=634
p1650
tp1651
a(V\u524d\u5385\u63a5\u5f85/\u793c\u4eea/\u8fce\u5bbe
p1652
V/jobs/searchresult.ashx?jl=640&bj=5005000&sj=277
p1653
tp1654
a(V\u9884\u8ba2\u5458
p1655
V/jobs/searchresult.ashx?jl=640&bj=5005000&sj=796
p1656
tp1657
a(V\u884c\u674e\u5458
p1658
V/jobs/searchresult.ashx?jl=640&bj=5005000&sj=798
p1659
tp1660
a(V\u670d\u52a1\u5458
p1661
V/jobs/searchresult.ashx?jl=640&bj=5005000&sj=279
p1662
tp1663
a(V\u9632\u635f\u5458/\u5185\u4fdd
p1664
V/jobs/searchresult.ashx?jl=640&bj=5005000&sj=492
p1665
tp1666
a(V\u5962\u4f88\u54c1\u9500\u552e
p1667
V/jobs/searchresult.ashx?jl=640&bj=5005000&sj=494
p1668
tp1669
a(V\u4e3b\u6301\u4eba/\u53f8\u4eea
p1670
V/jobs/searchresult.ashx?jl=640&bj=5005000&sj=637
p1671
tp1672
a(V\u5ba2\u623f\u670d\u52a1\u5458
p1673
V/jobs/searchresult.ashx?jl=640&bj=5005000&sj=2222
p1674
tp1675
a(V\u751f\u9c9c\u98df\u54c1\u52a0\u5de5/\u5904\u7406
p1676
V/jobs/searchresult.ashx?jl=640&bj=5005000&sj=2223
p1677
tp1678
a(V\u9152\u5e97\u8bd5\u7761\u5458
p1679
V/jobs/searchresult.ashx?jl=640&bj=5005000&sj=2224
p1680
tp1681
a(V\u95e8\u536b
p1682
V/jobs/searchresult.ashx?jl=640&bj=5005000&sj=2225
p1683
tp1684
a(V\u8d28\u91cf\u7ba1\u7406
p1685
V/jobs/searchresult.ashx?jl=640&bj=5005000&sj=2226
p1686
tp1687
a(V\u5176\u4ed6
p1688
V/jobs/searchresult.ashx?jl=640&bj=5005000&sj=357
p1689
tp1690
as(V\u4fdd\u5065/\u7f8e\u5bb9/\u7f8e\u53d1/\u5065\u8eab
p1691
V/jobs/searchresult.ashx?jl=640&bj=2050000
p1692
tp1693
(lp1694
(V\u7f8e\u53d1/\u53d1\u578b\u5e08
p1695
V/jobs/searchresult.ashx?jl=640&bj=2050000&sj=377
p1696
tp1697
a(V\u5316\u5986\u5e08
p1698
V/jobs/searchresult.ashx?jl=640&bj=2050000&sj=640
p1699
tp1700
a(V\u7f8e\u5bb9\u5e08/\u7f8e\u7532\u5e08
p1701
V/jobs/searchresult.ashx?jl=640&bj=2050000&sj=639
p1702
tp1703
a(V\u7f8e\u5bb9\u987e\u95ee(BA)
p1704
V/jobs/searchresult.ashx?jl=640&bj=2050000&sj=802
p1705
tp1706
a(V\u5065\u8eab/\u7f8e\u4f53/\u821e\u8e48\u6559\u7ec3
p1707
V/jobs/searchresult.ashx?jl=640&bj=2050000&sj=376
p1708
tp1709
a(V\u6309\u6469/\u8db3\u7597
p1710
V/jobs/searchresult.ashx?jl=640&bj=2050000&sj=641
p1711
tp1712
a(V\u6551\u751f\u5458
p1713
V/jobs/searchresult.ashx?jl=640&bj=2050000&sj=638
p1714
tp1715
a(V\u7f8e\u53d1\u57f9\u8bad\u5e08
p1716
V/jobs/searchresult.ashx?jl=640&bj=2050000&sj=2084
p1717
tp1718
a(V\u6e38\u6cf3\u6559\u7ec3
p1719
V/jobs/searchresult.ashx?jl=640&bj=2050000&sj=2085
p1720
tp1721
a(V\u9ad8\u5c14\u592b\u6559\u7ec3
p1722
V/jobs/searchresult.ashx?jl=640&bj=2050000&sj=2086
p1723
tp1724
a(V\u745c\u4f3d\u6559\u7ec3
p1725
V/jobs/searchresult.ashx?jl=640&bj=2050000&sj=2087
p1726
tp1727
a(V\u6237\u5916/\u6e38\u620f\u6559\u7ec3
p1728
V/jobs/searchresult.ashx?jl=640&bj=2050000&sj=2088
p1729
tp1730
a(V\u7f8e\u4f53\u5e08
p1731
V/jobs/searchresult.ashx?jl=640&bj=2050000&sj=2089
p1732
tp1733
a(V\u7f8e\u5bb9\u6574\u5f62\u5e08
p1734
V/jobs/searchresult.ashx?jl=640&bj=2050000&sj=2090
p1735
tp1736
a(V\u5176\u4ed6
p1737
V/jobs/searchresult.ashx?jl=640&bj=2050000&sj=234
p1738
tp1739
as(V\u7535\u5b50/\u7535\u5668/\u534a\u5bfc\u4f53/\u4eea\u5668\u4eea\u8868
p1740
V/jobs/searchresult.ashx?jl=640&bj=160100
p1741
tp1742
(lp1743
(V\u7535\u5b50\u6280\u672f\u7814\u53d1\u5de5\u7a0b\u5e08
p1744
V/jobs/searchresult.ashx?jl=640&bj=160100&sj=686
p1745
tp1746
a(V\u7535\u5b50/\u7535\u5668\u5de5\u7a0b\u5e08
p1747
V/jobs/searchresult.ashx?jl=640&bj=160100&sj=078
p1748
tp1749
a(V\u7535\u5668\u7814\u53d1\u5de5\u7a0b\u5e08
p1750
V/jobs/searchresult.ashx?jl=640&bj=160100&sj=528
p1751
tp1752
a(V\u7535\u5b50/\u7535\u5668\u5de5\u827a/\u5236\u7a0b\u5de5\u7a0b\u5e08
p1753
V/jobs/searchresult.ashx?jl=640&bj=160100&sj=091
p1754
tp1755
a(V\u7535\u8def\u5de5\u7a0b\u5e08/\u6280\u672f\u5458
p1756
V/jobs/searchresult.ashx?jl=640&bj=160100&sj=089
p1757
tp1758
a(V\u6a21\u62df\u7535\u8def\u8bbe\u8ba1/\u5e94\u7528\u5de5\u7a0b\u5e08
p1759
V/jobs/searchresult.ashx?jl=640&bj=160100&sj=406
p1760
tp1761
a(V\u7248\u56fe\u8bbe\u8ba1\u5de5\u7a0b\u5e08
p1762
V/jobs/searchresult.ashx?jl=640&bj=160100&sj=408
p1763
tp1764
a(V\u96c6\u6210\u7535\u8defIC\u8bbe\u8ba1/\u5e94\u7528\u5de5\u7a0b\u5e08
p1765
V/jobs/searchresult.ashx?jl=640&bj=160100&sj=404
p1766
tp1767
a(VIC\u9a8c\u8bc1\u5de5\u7a0b\u5e08
p1768
V/jobs/searchresult.ashx?jl=640&bj=160100&sj=405
p1769
tp1770
a(V\u7535\u5b50\u5143\u5668\u4ef6\u5de5\u7a0b\u5e08
p1771
V/jobs/searchresult.ashx?jl=640&bj=160100&sj=082
p1772
tp1773
a(V\u5c04\u9891\u5de5\u7a0b\u5e08
p1774
V/jobs/searchresult.ashx?jl=640&bj=160100&sj=684
p1775
tp1776
a(V\u65e0\u7ebf\u7535\u5de5\u7a0b\u5e08
p1777
V/jobs/searchresult.ashx?jl=640&bj=160100&sj=318
p1778
tp1779
a(V\u6fc0\u5149/\u5149\u7535\u5b50\u6280\u672f
p1780
V/jobs/searchresult.ashx?jl=640&bj=160100&sj=411
p1781
tp1782
a(V\u5149\u6e90/\u7167\u660e\u5de5\u7a0b\u5e08
p1783
V/jobs/searchresult.ashx?jl=640&bj=160100&sj=559
p1784
tp1785
a(V\u53d8\u538b\u5668\u4e0e\u78c1\u7535\u5de5\u7a0b\u5e08
p1786
V/jobs/searchresult.ashx?jl=640&bj=160100&sj=681
p1787
tp1788
a(V\u7535\u6c60/\u7535\u6e90\u5f00\u53d1
p1789
V/jobs/searchresult.ashx?jl=640&bj=160100&sj=083
p1790
tp1791
a(V\u5bb6\u7528\u7535\u5668/\u6570\u7801\u4ea7\u54c1\u7814\u53d1
p1792
V/jobs/searchresult.ashx?jl=640&bj=160100&sj=085
p1793
tp1794
a(V\u7a7a\u8c03\u5de5\u7a0b/\u8bbe\u8ba1
p1795
V/jobs/searchresult.ashx?jl=640&bj=160100&sj=560
p1796
tp1797
a(V\u97f3\u9891/\u89c6\u9891\u5de5\u7a0b\u5e08/\u6280\u672f\u5458
p1798
V/jobs/searchresult.ashx?jl=640&bj=160100&sj=402
p1799
tp1800
a(V\u5b89\u9632\u7cfb\u7edf\u5de5\u7a0b\u5e08
p1801
V/jobs/searchresult.ashx?jl=640&bj=160100&sj=808
p1802
tp1803
a(V\u7535\u5b50/\u7535\u5668\u8bbe\u5907\u5de5\u7a0b\u5e08
p1804
V/jobs/searchresult.ashx?jl=640&bj=160100&sj=401
p1805
tp1806
a(V\u7535\u5b50/\u7535\u5668\u7ef4\u4fee/\u4fdd\u517b
p1807
V/jobs/searchresult.ashx?jl=640&bj=160100&sj=403
p1808
tp1809
a(V\u7535\u5b50/\u7535\u5668\u9879\u76ee\u7ba1\u7406
p1810
V/jobs/searchresult.ashx?jl=640&bj=160100&sj=409
p1811
tp1812
a(V\u7535\u6c14\u5de5\u7a0b\u5e08
p1813
V/jobs/searchresult.ashx?jl=640&bj=160100&sj=865
p1814
tp1815
a(V\u7535\u6c14\u8bbe\u8ba1
p1816
V/jobs/searchresult.ashx?jl=640&bj=160100&sj=467
p1817
tp1818
a(V\u7535\u6c14\u7ebf\u8def\u8bbe\u8ba1
p1819
V/jobs/searchresult.ashx?jl=640&bj=160100&sj=683
p1820
tp1821
a(V\u7ebf\u8def\u7ed3\u6784\u8bbe\u8ba1
p1822
V/jobs/searchresult.ashx?jl=640&bj=160100&sj=682
p1823
tp1824
a(V\u534a\u5bfc\u4f53\u6280\u672f
p1825
V/jobs/searchresult.ashx?jl=640&bj=160100&sj=081
p1826
tp1827
a(V\u4eea\u5668/\u4eea\u8868/\u8ba1\u91cf\u5de5\u7a0b\u5e08
p1828
V/jobs/searchresult.ashx?jl=640&bj=160100&sj=086
p1829
tp1830
a(V\u81ea\u52a8\u5316\u5de5\u7a0b\u5e08
p1831
V/jobs/searchresult.ashx?jl=640&bj=160100&sj=033
p1832
tp1833
a(V\u73b0\u573a\u5e94\u7528\u5de5\u7a0b\u5e08\uff08FAE\uff09
p1834
V/jobs/searchresult.ashx?jl=640&bj=160100&sj=084
p1835
tp1836
a(V\u6d4b\u8bd5/\u53ef\u9760\u6027\u5de5\u7a0b\u5e08
p1837
V/jobs/searchresult.ashx?jl=640&bj=160100&sj=410
p1838
tp1839
a(V\u7535\u5b50\u5de5\u7a0b\u5e08/\u6280\u672f\u5458
p1840
V/jobs/searchresult.ashx?jl=640&bj=160100&sj=2044
p1841
tp1842
a(V\u7535\u58f0/\u97f3\u54cd\u5de5\u7a0b\u5e08/\u6280\u672f\u5458
p1843
V/jobs/searchresult.ashx?jl=640&bj=160100&sj=2045
p1844
tp1845
a(V\u5176\u4ed6
p1846
V/jobs/searchresult.ashx?jl=640&bj=160100&sj=094
p1847
tp1848
as(V\u516c\u5173/\u5a92\u4ecb
p1849
V/jobs/searchresult.ashx?jl=640&bj=4084000
p1850
tp1851
(lp1852
(V\u516c\u5173\u603b\u76d1
p1853
V/jobs/searchresult.ashx?jl=640&bj=4084000&sj=162
p1854
tp1855
a(V\u516c\u5173\u7ecf\u7406/\u4e3b\u7ba1
p1856
V/jobs/searchresult.ashx?jl=640&bj=4084000&sj=606
p1857
tp1858
a(V\u516c\u5173\u4e13\u5458/\u52a9\u7406
p1859
V/jobs/searchresult.ashx?jl=640&bj=4084000&sj=163
p1860
tp1861
a(V\u5a92\u4ecb\u7ecf\u7406/\u4e3b\u7ba1
p1862
V/jobs/searchresult.ashx?jl=640&bj=4084000&sj=164
p1863
tp1864
a(V\u5a92\u4ecb\u4e13\u5458/\u52a9\u7406
p1865
V/jobs/searchresult.ashx?jl=640&bj=4084000&sj=165
p1866
tp1867
a(V\u5a92\u4ecb\u7b56\u5212/\u7ba1\u7406
p1868
V/jobs/searchresult.ashx?jl=640&bj=4084000&sj=513
p1869
tp1870
a(V\u653f\u5e9c\u4e8b\u52a1\u7ba1\u7406
p1871
V/jobs/searchresult.ashx?jl=640&bj=4084000&sj=768
p1872
tp1873
a(V\u5a92\u4ecb\u9500\u552e
p1874
V/jobs/searchresult.ashx?jl=640&bj=4084000&sj=2181
p1875
tp1876
a(V\u6d3b\u52a8\u6267\u884c
p1877
V/jobs/searchresult.ashx?jl=640&bj=4084000&sj=2182
p1878
tp1879
a(V\u5176\u4ed6
p1880
V/jobs/searchresult.ashx?jl=640&bj=4084000&sj=607
p1881
tp1882
as(V\u827a\u672f/\u8bbe\u8ba1
p1883
V/jobs/searchresult.ashx?jl=640&bj=2100708
p1884
tp1885
(lp1886
(V\u8bbe\u8ba1\u7ba1\u7406\u4eba\u5458
p1887
V/jobs/searchresult.ashx?jl=640&bj=2100708&sj=364
p1888
tp1889
a(V\u827a\u672f/\u8bbe\u8ba1\u603b\u76d1
p1890
V/jobs/searchresult.ashx?jl=640&bj=2100708&sj=153
p1891
tp1892
a(V\u7ed8\u753b
p1893
V/jobs/searchresult.ashx?jl=640&bj=2100708&sj=753
p1894
tp1895
a(V\u539f\u753b\u5e08
p1896
V/jobs/searchresult.ashx?jl=640&bj=2100708&sj=754
p1897
tp1898
a(VCAD\u8bbe\u8ba1/\u5236\u56fe
p1899
V/jobs/searchresult.ashx?jl=640&bj=2100708&sj=608
p1900
tp1901
a(V\u5e73\u9762\u8bbe\u8ba1
p1902
V/jobs/searchresult.ashx?jl=640&bj=2100708&sj=149
p1903
tp1904
a(V\u4e09\u7ef4/3D\u8bbe\u8ba1/\u5236\u4f5c
p1905
V/jobs/searchresult.ashx?jl=640&bj=2100708&sj=554
p1906
tp1907
a(VFlash\u8bbe\u8ba1/\u5f00\u53d1
p1908
V/jobs/searchresult.ashx?jl=640&bj=2100708&sj=555
p1909
tp1910
a(V\u7279\u6548\u8bbe\u8ba1
p1911
V/jobs/searchresult.ashx?jl=640&bj=2100708&sj=673
p1912
tp1913
a(V\u89c6\u89c9\u8bbe\u8ba1
p1914
V/jobs/searchresult.ashx?jl=640&bj=2100708&sj=674
p1915
tp1916
a(V\u7528\u6237\u4f53\u9a8c\uff08UE/UX\uff09\u8bbe\u8ba1
p1917
V/jobs/searchresult.ashx?jl=640&bj=2100708&sj=862
p1918
tp1919
a(V\u7f8e\u672f\u7f16\u8f91/\u7f8e\u672f\u8bbe\u8ba1
p1920
V/jobs/searchresult.ashx?jl=640&bj=2100708&sj=184
p1921
tp1922
a(V\u591a\u5a92\u4f53/\u52a8\u753b\u8bbe\u8ba1
p1923
V/jobs/searchresult.ashx?jl=640&bj=2100708&sj=151
p1924
tp1925
a(V\u5305\u88c5\u8bbe\u8ba1
p1926
V/jobs/searchresult.ashx?jl=640&bj=2100708&sj=150
p1927
tp1928
a(V\u5bb6\u5177\u8bbe\u8ba1
p1929
V/jobs/searchresult.ashx?jl=640&bj=2100708&sj=366
p1930
tp1931
a(V\u5bb6\u5c45\u7528\u54c1\u8bbe\u8ba1
p1932
V/jobs/searchresult.ashx?jl=640&bj=2100708&sj=751
p1933
tp1934
a(V\u5de5\u827a\u54c1/\u73e0\u5b9d\u8bbe\u8ba1
p1935
V/jobs/searchresult.ashx?jl=640&bj=2100708&sj=365
p1936
tp1937
a(V\u73a9\u5177\u8bbe\u8ba1
p1938
V/jobs/searchresult.ashx?jl=640&bj=2100708&sj=752
p1939
tp1940
a(V\u5e97\u9762/\u5c55\u89c8/\u5c55\u793a/\u9648\u5217\u8bbe\u8ba1
p1941
V/jobs/searchresult.ashx?jl=640&bj=2100708&sj=755
p1942
tp1943
a(V\u5de5\u4e1a\u8bbe\u8ba1
p1944
V/jobs/searchresult.ashx?jl=640&bj=2100708&sj=750
p1945
tp1946
a(V\u6e38\u620f\u754c\u9762\u8bbe\u8ba1
p1947
V/jobs/searchresult.ashx?jl=640&bj=2100708&sj=867
p1948
tp1949
a(V\u56ed\u6797\u666f\u89c2\u8bbe\u8ba1\u5e08
p1950
V/jobs/searchresult.ashx?jl=640&bj=2100708&sj=2118
p1951
tp1952
a(V\u5e73\u9762\u8bbe\u8ba1\u603b\u76d1
p1953
V/jobs/searchresult.ashx?jl=640&bj=2100708&sj=2119
p1954
tp1955
a(V\u5e73\u9762\u8bbe\u8ba1\u7ecf\u7406/\u4e3b\u7ba1
p1956
V/jobs/searchresult.ashx?jl=640&bj=2100708&sj=2120
p1957
tp1958
a(V\u5176\u4ed6
p1959
V/jobs/searchresult.ashx?jl=640&bj=2100708&sj=157
p1960
tp1961
as(V\u4fe1\u6258/\u62c5\u4fdd/\u62cd\u5356/\u5178\u5f53
p1962
V/jobs/searchresult.ashx?jl=640&bj=200900
p1963
tp1964
(lp1965
(V\u4fe1\u6258\u670d\u52a1
p1966
V/jobs/searchresult.ashx?jl=640&bj=200900&sj=930
p1967
tp1968
a(V\u62c5\u4fdd\u4e1a\u52a1
p1969
V/jobs/searchresult.ashx?jl=640&bj=200900&sj=921
p1970
tp1971
a(V\u62cd\u5356\u5e08
p1972
V/jobs/searchresult.ashx?jl=640&bj=200900&sj=929
p1973
tp1974
a(V\u5178\u5f53\u4e1a\u52a1
p1975
V/jobs/searchresult.ashx?jl=640&bj=200900&sj=931
p1976
tp1977
a(V\u73e0\u5b9d/\u6536\u85cf\u54c1\u9274\u5b9a
p1978
V/jobs/searchresult.ashx?jl=640&bj=200900&sj=811
p1979
tp1980
a(V\u5176\u4ed6
p1981
V/jobs/searchresult.ashx?jl=640&bj=200900&sj=812
p1982
tp1983
as(V\u4ea4\u901a\u8fd0\u8f93\u670d\u52a1
p1984
V/jobs/searchresult.ashx?jl=640&bj=4010300
p1985
tp1986
(lp1987
(V\u673a\u52a8\u8f66\u53f8\u673a/\u9a7e\u9a76
p1988
V/jobs/searchresult.ashx?jl=640&bj=4010300&sj=246
p1989
tp1990
a(V\u5217\u8f66\u9a7e\u9a76/\u64cd\u4f5c
p1991
V/jobs/searchresult.ashx?jl=640&bj=4010300&sj=879
p1992
tp1993
a(V\u8239\u8236\u9a7e\u9a76/\u64cd\u4f5c
p1994
V/jobs/searchresult.ashx?jl=640&bj=4010300&sj=880
p1995
tp1996
a(V\u98de\u673a\u9a7e\u9a76/\u64cd\u4f5c
p1997
V/jobs/searchresult.ashx?jl=640&bj=4010300&sj=245
p1998
tp1999
a(V\u516c\u4ea4/\u5730\u94c1\u4e58\u52a1
p2000
V/jobs/searchresult.ashx?jl=640&bj=4010300&sj=594
p2001
tp2002
a(V\u5217\u8f66\u4e58\u52a1
p2003
V/jobs/searchresult.ashx?jl=640&bj=4010300&sj=489
p2004
tp2005
a(V\u8239\u8236\u4e58\u52a1
p2006
V/jobs/searchresult.ashx?jl=640&bj=4010300&sj=881
p2007
tp2008
a(V\u8239\u5458/\u6c34\u624b
p2009
V/jobs/searchresult.ashx?jl=640&bj=4010300&sj=878
p2010
tp2011
a(V\u822a\u7a7a\u4e58\u52a1
p2012
V/jobs/searchresult.ashx?jl=640&bj=4010300&sj=737
p2013
tp2014
a(V\u5730\u52e4\u4eba\u5458
p2015
V/jobs/searchresult.ashx?jl=640&bj=4010300&sj=736
p2016
tp2017
a(V\u5b89\u68c0\u5458
p2018
V/jobs/searchresult.ashx?jl=640&bj=4010300&sj=2154
p2019
tp2020
a(V\u9a7e\u9a76\u6559\u7ec3
p2021
V/jobs/searchresult.ashx?jl=640&bj=4010300&sj=2155
p2022
tp2023
a(V\u4ea4\u901a\u7ba1\u7406\u5458
p2024
V/jobs/searchresult.ashx?jl=640&bj=4010300&sj=2156
p2025
tp2026
a(V\u8239\u957f
p2027
V/jobs/searchresult.ashx?jl=640&bj=4010300&sj=2157
p2028
tp2029
a(V\u4ee3\u9a7e
p2030
V/jobs/searchresult.ashx?jl=640&bj=4010300&sj=2158
p2031
tp2032
a(V\u5176\u4ed6
p2033
V/jobs/searchresult.ashx?jl=640&bj=4010300&sj=248
p2034
tp2035
as(VIT\u8d28\u91cf\u7ba1\u7406/\u6d4b\u8bd5/\u914d\u7f6e\u7ba1\u7406
p2036
V/jobs/searchresult.ashx?jl=640&bj=160400
p2037
tp2038
(lp2039
(VIT\u8d28\u91cf\u7ba1\u7406\u7ecf\u7406/\u4e3b\u7ba1
p2040
V/jobs/searchresult.ashx?jl=640&bj=160400&sj=693
p2041
tp2042
a(VIT\u8d28\u91cf\u7ba1\u7406\u5de5\u7a0b\u5e08
p2043
V/jobs/searchresult.ashx?jl=640&bj=160400&sj=049
p2044
tp2045
a(V\u7cfb\u7edf\u6d4b\u8bd5
p2046
V/jobs/searchresult.ashx?jl=640&bj=160400&sj=694
p2047
tp2048
a(V\u8f6f\u4ef6\u6d4b\u8bd5
p2049
V/jobs/searchresult.ashx?jl=640&bj=160400&sj=695
p2050
tp2051
a(V\u786c\u4ef6\u6d4b\u8bd5
p2052
V/jobs/searchresult.ashx?jl=640&bj=160400&sj=696
p2053
tp2054
a(V\u914d\u7f6e\u7ba1\u7406\u5de5\u7a0b\u5e08
p2055
V/jobs/searchresult.ashx?jl=640&bj=160400&sj=868
p2056
tp2057
a(V\u4fe1\u606f\u6280\u672f\u6807\u51c6\u5316\u5de5\u7a0b\u5e08
p2058
V/jobs/searchresult.ashx?jl=640&bj=160400&sj=692
p2059
tp2060
a(V\u6807\u51c6\u5316\u5de5\u7a0b\u5e08
p2061
V/jobs/searchresult.ashx?jl=640&bj=160400&sj=2063
p2062
tp2063
a(V\u6e38\u620f\u6d4b\u8bd5
p2064
V/jobs/searchresult.ashx?jl=640&bj=160400&sj=2064
p2065
tp2066
a(V\u624b\u673a\u7ef4\u4fee
p2067
V/jobs/searchresult.ashx?jl=640&bj=160400&sj=2065
p2068
tp2069
a(V\u5176\u4ed6
p2070
V/jobs/searchresult.ashx?jl=640&bj=160400&sj=561
p2071
tp2072
as(V\u786c\u4ef6\u5f00\u53d1
p2073
V/jobs/searchresult.ashx?jl=640&bj=160300
p2074
tp2075
(lp2076
(V\u9ad8\u7ea7\u786c\u4ef6\u5de5\u7a0b\u5e08
p2077
V/jobs/searchresult.ashx?jl=640&bj=160300&sj=314
p2078
tp2079
a(V\u786c\u4ef6\u5de5\u7a0b\u5e08
p2080
V/jobs/searchresult.ashx?jl=640&bj=160300&sj=043
p2081
tp2082
a(V\u5d4c\u5165\u5f0f\u786c\u4ef6\u5f00\u53d1
p2083
V/jobs/searchresult.ashx?jl=640&bj=160300&sj=407
p2084
tp2085
a(V\u5176\u4ed6
p2086
V/jobs/searchresult.ashx?jl=640&bj=160300&sj=557
p2087
tp2088
as(V\u5e02\u573a
p2089
V/jobs/searchresult.ashx?jl=640&bj=4082000
p2090
tp2091
(lp2092
(V\u5e02\u573a\u603b\u76d1
p2093
V/jobs/searchresult.ashx?jl=640&bj=4082000&sj=158
p2094
tp2095
a(V\u5e02\u573a\u7ecf\u7406
p2096
V/jobs/searchresult.ashx?jl=640&bj=4082000&sj=600
p2097
tp2098
a(V\u5e02\u573a\u4e3b\u7ba1
p2099
V/jobs/searchresult.ashx?jl=640&bj=4082000&sj=604
p2100
tp2101
a(V\u5e02\u573a\u4e13\u5458/\u52a9\u7406
p2102
V/jobs/searchresult.ashx?jl=640&bj=4082000&sj=171
p2103
tp2104
a(V\u5e02\u573a\u8425\u9500\u7ecf\u7406
p2105
V/jobs/searchresult.ashx?jl=640&bj=4082000&sj=159
p2106
tp2107
a(V\u5e02\u573a\u8425\u9500\u4e3b\u7ba1
p2108
V/jobs/searchresult.ashx?jl=640&bj=4082000&sj=601
p2109
tp2110
a(V\u5e02\u573a\u8425\u9500\u4e13\u5458/\u52a9\u7406
p2111
V/jobs/searchresult.ashx?jl=640&bj=4082000&sj=160
p2112
tp2113
a(V\u4e1a\u52a1\u62d3\u5c55\u7ecf\u7406/\u4e3b\u7ba1
p2114
V/jobs/searchresult.ashx?jl=640&bj=4082000&sj=311
p2115
tp2116
a(V\u4e1a\u52a1\u62d3\u5c55\u4e13\u5458/\u52a9\u7406
p2117
V/jobs/searchresult.ashx?jl=640&bj=4082000&sj=602
p2118
tp2119
a(V\u4ea7\u54c1\u7ecf\u7406
p2120
V/jobs/searchresult.ashx?jl=640&bj=4082000&sj=847
p2121
tp2122
a(V\u4ea7\u54c1\u4e3b\u7ba1
p2123
V/jobs/searchresult.ashx?jl=640&bj=4082000&sj=848
p2124
tp2125
a(V\u4ea7\u54c1\u4e13\u5458/\u52a9\u7406
p2126
V/jobs/searchresult.ashx?jl=640&bj=4082000&sj=849
p2127
tp2128
a(V\u54c1\u724c\u7ecf\u7406
p2129
V/jobs/searchresult.ashx?jl=640&bj=4082000&sj=168
p2130
tp2131
a(V\u54c1\u724c\u4e3b\u7ba1
p2132
V/jobs/searchresult.ashx?jl=640&bj=4082000&sj=603
p2133
tp2134
a(V\u54c1\u724c\u4e13\u5458/\u52a9\u7406
p2135
V/jobs/searchresult.ashx?jl=640&bj=4082000&sj=170
p2136
tp2137
a(V\u5e02\u573a\u7b56\u5212/\u4f01\u5212\u7ecf\u7406/\u4e3b\u7ba1
p2138
V/jobs/searchresult.ashx?jl=640&bj=4082000&sj=161
p2139
tp2140
a(V\u5e02\u573a\u7b56\u5212/\u4f01\u5212\u4e13\u5458/\u52a9\u7406
p2141
V/jobs/searchresult.ashx?jl=640&bj=4082000&sj=605
p2142
tp2143
a(V\u5e02\u573a\u6587\u6848\u7b56\u5212
p2144
V/jobs/searchresult.ashx?jl=640&bj=4082000&sj=851
p2145
tp2146
a(V\u6d3b\u52a8\u7b56\u5212
p2147
V/jobs/searchresult.ashx?jl=640&bj=4082000&sj=749
p2148
tp2149
a(V\u6d3b\u52a8\u6267\u884c
p2150
V/jobs/searchresult.ashx?jl=640&bj=4082000&sj=759
p2151
tp2152
a(V\u4fc3\u9500\u4e3b\u7ba1/\u7763\u5bfc
p2153
V/jobs/searchresult.ashx?jl=640&bj=4082000&sj=748
p2154
tp2155
a(V\u4fc3\u9500\u5458
p2156
V/jobs/searchresult.ashx?jl=640&bj=4082000&sj=850
p2157
tp2158
a(V\u7f51\u7ad9\u63a8\u5e7f
p2159
V/jobs/searchresult.ashx?jl=640&bj=4082000&sj=451
p2160
tp2161
a(VSEO/SEM
p2162
V/jobs/searchresult.ashx?jl=640&bj=4082000&sj=866
p2163
tp2164
a(V\u5b66\u672f\u63a8\u5e7f
p2165
V/jobs/searchresult.ashx?jl=640&bj=4082000&sj=853
p2166
tp2167
a(V\u9009\u5740\u62d3\u5c55/\u65b0\u5e97\u5f00\u53d1
p2168
V/jobs/searchresult.ashx?jl=640&bj=4082000&sj=747
p2169
tp2170
a(V\u5e02\u573a\u8c03\u7814\u4e0e\u5206\u6790
p2171
V/jobs/searchresult.ashx?jl=640&bj=4082000&sj=167
p2172
tp2173
a(V\u54c1\u724c\u7b56\u5212
p2174
V/jobs/searchresult.ashx?jl=640&bj=4082000&sj=2174
p2175
tp2176
a(V\u5e02\u573a\u901a\u8def\u4e13\u5458
p2177
V/jobs/searchresult.ashx?jl=640&bj=4082000&sj=2175
p2178
tp2179
a(V\u4fc3\u9500\u7ecf\u7406
p2180
V/jobs/searchresult.ashx?jl=640&bj=4082000&sj=2176
p2181
tp2182
a(V\u5176\u4ed6
p2183
V/jobs/searchresult.ashx?jl=640&bj=4082000&sj=174
p2184
tp2185
as(V\u6c7d\u8f66\u5236\u9020
p2186
V/jobs/searchresult.ashx?jl=640&bj=7003000
p2187
tp2188
(lp2189
(V\u6c7d\u8f66\u52a8\u529b\u7cfb\u7edf\u5de5\u7a0b\u5e08
p2190
V/jobs/searchresult.ashx?jl=640&bj=7003000&sj=872
p2191
tp2192
a(V\u6c7d\u8f66\u5e95\u76d8/\u603b\u88c5\u5de5\u7a0b\u5e08
p2193
V/jobs/searchresult.ashx?jl=640&bj=7003000&sj=474
p2194
tp2195
a(V\u8f66\u8eab\u8bbe\u8ba1\u5de5\u7a0b\u5e08
p2196
V/jobs/searchresult.ashx?jl=640&bj=7003000&sj=470
p2197
tp2198
a(V\u6c7d\u8f66\u7535\u5b50\u5de5\u7a0b\u5e08
p2199
V/jobs/searchresult.ashx?jl=640&bj=7003000&sj=476
p2200
tp2201
a(V\u6c7d\u8f66\u673a\u68b0\u5de5\u7a0b\u5e08
p2202
V/jobs/searchresult.ashx?jl=640&bj=7003000&sj=475
p2203
tp2204
a(V\u6c7d\u8f66\u96f6\u90e8\u4ef6\u8bbe\u8ba1\u5e08
p2205
V/jobs/searchresult.ashx?jl=640&bj=7003000&sj=473
p2206
tp2207
a(V\u6c7d\u8f66\u88c5\u914d\u5de5\u827a\u5de5\u7a0b\u5e08
p2208
V/jobs/searchresult.ashx?jl=640&bj=7003000&sj=472
p2209
tp2210
a(V\u5b89\u5168\u6027\u80fd\u5de5\u7a0b\u5e08
p2211
V/jobs/searchresult.ashx?jl=640&bj=7003000&sj=478
p2212
tp2213
a(V\u6c7d\u8f66\u5de5\u7a0b\u9879\u76ee\u7ba1\u7406
p2214
V/jobs/searchresult.ashx?jl=640&bj=7003000&sj=471
p2215
tp2216
a(V\u6c7d\u8f66\u673a\u6784\u5de5\u7a0b\u5e08
p2217
V/jobs/searchresult.ashx?jl=640&bj=7003000&sj=2232
p2218
tp2219
a(V\u6c7d\u8f66\u7535\u5de5
p2220
V/jobs/searchresult.ashx?jl=640&bj=7003000&sj=2233
p2221
tp2222
a(V\u552e\u540e\u670d\u52a1/\u5ba2\u6237\u670d\u52a1
p2223
V/jobs/searchresult.ashx?jl=640&bj=7003000&sj=2234
p2224
tp2225
a(V\u52a0\u6cb9\u7ad9\u5de5\u4f5c\u5458
p2226
V/jobs/searchresult.ashx?jl=640&bj=7003000&sj=2235
p2227
tp2228
a(V\u53d1\u52a8\u673a/\u603b\u88c5\u5de5\u7a0b\u5e08
p2229
V/jobs/searchresult.ashx?jl=640&bj=7003000&sj=2236
p2230
tp2231
a(V\u5176\u4ed6
p2232
V/jobs/searchresult.ashx?jl=640&bj=7003000&sj=485
p2233
tp2234
as(V\u8d22\u52a1/\u5ba1\u8ba1/\u7a0e\u52a1
p2235
V/jobs/searchresult.ashx?jl=640&bj=2060000
p2236
tp2237
(lp2238
(V\u9996\u5e2d\u8d22\u52a1\u5b98CFO
p2239
V/jobs/searchresult.ashx?jl=640&bj=2060000&sj=399
p2240
tp2241
a(V\u8d22\u52a1\u603b\u76d1
p2242
V/jobs/searchresult.ashx?jl=640&bj=2060000&sj=200
p2243
tp2244
a(V\u8d22\u52a1\u7ecf\u7406
p2245
V/jobs/searchresult.ashx?jl=640&bj=2060000&sj=201
p2246
tp2247
a(V\u8d22\u52a1\u4e3b\u7ba1/\u603b\u5e10\u4e3b\u7ba1
p2248
V/jobs/searchresult.ashx?jl=640&bj=2060000&sj=202
p2249
tp2250
a(V\u8d22\u52a1\u987e\u95ee
p2251
V/jobs/searchresult.ashx?jl=640&bj=2060000&sj=714
p2252
tp2253
a(V\u8d22\u52a1\u52a9\u7406
p2254
V/jobs/searchresult.ashx?jl=640&bj=2060000&sj=205
p2255
tp2256
a(V\u8d22\u52a1\u5206\u6790\u7ecf\u7406/\u4e3b\u7ba1
p2257
V/jobs/searchresult.ashx?jl=640&bj=2060000&sj=203
p2258
tp2259
a(V\u8d22\u52a1\u5206\u6790\u5458
p2260
V/jobs/searchresult.ashx?jl=640&bj=2060000&sj=204
p2261
tp2262
a(V\u4f1a\u8ba1\u7ecf\u7406/\u4e3b\u7ba1
p2263
V/jobs/searchresult.ashx?jl=640&bj=2060000&sj=206
p2264
tp2265
a(V\u4f1a\u8ba1/\u4f1a\u8ba1\u5e08
p2266
V/jobs/searchresult.ashx?jl=640&bj=2060000&sj=207
p2267
tp2268
a(V\u4f1a\u8ba1\u52a9\u7406/\u6587\u5458
p2269
V/jobs/searchresult.ashx?jl=640&bj=2060000&sj=713
p2270
tp2271
a(V\u51fa\u7eb3\u5458
p2272
V/jobs/searchresult.ashx?jl=640&bj=2060000&sj=208
p2273
tp2274
a(V\u5ba1\u8ba1\u7ecf\u7406/\u4e3b\u7ba1
p2275
V/jobs/searchresult.ashx?jl=640&bj=2060000&sj=212
p2276
tp2277
a(V\u5ba1\u8ba1\u4e13\u5458/\u52a9\u7406
p2278
V/jobs/searchresult.ashx?jl=640&bj=2060000&sj=213
p2279
tp2280
a(V\u7a0e\u52a1\u7ecf\u7406/\u4e3b\u7ba1
p2281
V/jobs/searchresult.ashx?jl=640&bj=2060000&sj=209
p2282
tp2283
a(V\u7a0e\u52a1\u4e13\u5458/\u52a9\u7406
p2284
V/jobs/searchresult.ashx?jl=640&bj=2060000&sj=210
p2285
tp2286
a(V\u6210\u672c\u7ecf\u7406/\u4e3b\u7ba1
p2287
V/jobs/searchresult.ashx?jl=640&bj=2060000&sj=211
p2288
tp2289
a(V\u6210\u672c\u4f1a\u8ba1
p2290
V/jobs/searchresult.ashx?jl=640&bj=2060000&sj=527
p2291
tp2292
a(V\u8d44\u4ea7/\u8d44\u91d1\u7ba1\u7406
p2293
V/jobs/searchresult.ashx?jl=640&bj=2060000&sj=570
p2294
tp2295
a(V\u8d44\u91d1\u4e13\u5458
p2296
V/jobs/searchresult.ashx?jl=640&bj=2060000&sj=715
p2297
tp2298
a(V\u7edf\u8ba1\u5458
p2299
V/jobs/searchresult.ashx?jl=640&bj=2060000&sj=214
p2300
tp2301
a(V\u56fa\u5b9a\u8d44\u4ea7\u4f1a\u8ba1
p2302
V/jobs/searchresult.ashx?jl=640&bj=2060000&sj=2098
p2303
tp2304
a(V\u6210\u672c\u7ba1\u7406\u5458
p2305
V/jobs/searchresult.ashx?jl=640&bj=2060000&sj=2099
p2306
tp2307
a(V\u5176\u4ed6
p2308
V/jobs/searchresult.ashx?jl=640&bj=2060000&sj=215
p2309
tp2310
as(V\u5f8b\u5e08/\u6cd5\u52a1/\u5408\u89c4
p2311
V/jobs/searchresult.ashx?jl=640&bj=2080000
p2312
tp2313
(lp2314
(V\u6cd5\u52a1\u7ecf\u7406/\u4e3b\u7ba1
p2315
V/jobs/searchresult.ashx?jl=640&bj=2080000&sj=225
p2316
tp2317
a(V\u6cd5\u52a1\u4e13\u5458/\u52a9\u7406
p2318
V/jobs/searchresult.ashx?jl=640&bj=2080000&sj=629
p2319
tp2320
a(V\u5f8b\u5e08
p2321
V/jobs/searchresult.ashx?jl=640&bj=2080000&sj=223
p2322
tp2323
a(V\u5f8b\u5e08\u52a9\u7406
p2324
V/jobs/searchresult.ashx?jl=640&bj=2080000&sj=860
p2325
tp2326
a(V\u4f01\u4e1a\u5f8b\u5e08/\u5408\u89c4\u7ecf\u7406/\u4e3b\u7ba1
p2327
V/jobs/searchresult.ashx?jl=640&bj=2080000&sj=363
p2328
tp2329
a(V\u4f01\u4e1a\u5f8b\u5e08/\u5408\u89c4\u987e\u95ee
p2330
V/jobs/searchresult.ashx?jl=640&bj=2080000&sj=224
p2331
tp2332
a(V\u77e5\u8bc6\u4ea7\u6743/\u4e13\u5229\u987e\u95ee/\u4ee3\u7406\u4eba
p2333
V/jobs/searchresult.ashx?jl=640&bj=2080000&sj=226
p2334
tp2335
a(V\u5408\u540c\u7ba1\u7406
p2336
V/jobs/searchresult.ashx?jl=640&bj=2080000&sj=497
p2337
tp2338
a(V\u5408\u89c4\u7ecf\u7406
p2339
V/jobs/searchresult.ashx?jl=640&bj=2080000&sj=2113
p2340
tp2341
a(V\u5176\u4ed6
p2342
V/jobs/searchresult.ashx?jl=640&bj=2080000&sj=227
p2343
tp2344
as(V\u5b9e\u4e60\u751f/\u57f9\u8bad\u751f/\u50a8\u5907\u5e72\u90e8
p2345
V/jobs/searchresult.ashx?jl=640&bj=5006000
p2346
tp2347
(lp2348
(V\u5b9e\u4e60\u751f
p2349
V/jobs/searchresult.ashx?jl=640&bj=5006000&sj=299
p2350
tp2351
a(V\u57f9\u8bad\u751f
p2352
V/jobs/searchresult.ashx?jl=640&bj=5006000&sj=302
p2353
tp2354
a(V\u50a8\u5907\u5e72\u90e8
p2355
V/jobs/searchresult.ashx?jl=640&bj=5006000&sj=301
p2356
tp2357
a(V\u5176\u4ed6
p2358
V/jobs/searchresult.ashx?jl=640&bj=5006000&sj=381
p2359
tp2360
as(V\u5fd7\u613f\u8005/\u793e\u4f1a\u5de5\u4f5c\u8005
p2361
V/jobs/searchresult.ashx?jl=640&bj=200700
p2362
tp2363
(lp2364
(V\u5fd7\u613f\u8005/\u4e49\u5de5
p2365
V/jobs/searchresult.ashx?jl=640&bj=200700&sj=658
p2366
tp2367
a(V\u793e\u4f1a\u5de5\u4f5c\u8005/\u793e\u5de5
p2368
V/jobs/searchresult.ashx?jl=640&bj=200700&sj=838
p2369
tp2370
a(V\u5176\u4ed6
p2371
V/jobs/searchresult.ashx?jl=640&bj=200700&sj=839
p2372
tp2373
as(VIT\u7ba1\u7406/\u9879\u76ee\u534f\u8c03
p2374
V/jobs/searchresult.ashx?jl=640&bj=200300
p2375
tp2376
(lp2377
(VCTO/CIO
p2378
V/jobs/searchresult.ashx?jl=640&bj=200300&sj=398
p2379
tp2380
a(VIT\u6280\u672f/\u7814\u53d1\u603b\u76d1
p2381
V/jobs/searchresult.ashx?jl=640&bj=200300&sj=928
p2382
tp2383
a(VIT\u6280\u672f/\u7814\u53d1\u7ecf\u7406/\u4e3b\u7ba1
p2384
V/jobs/searchresult.ashx?jl=640&bj=200300&sj=313
p2385
tp2386
a(VIT\u9879\u76ee\u603b\u76d1
p2387
V/jobs/searchresult.ashx?jl=640&bj=200300&sj=688
p2388
tp2389
a(VIT\u9879\u76ee\u7ecf\u7406/\u4e3b\u7ba1
p2390
V/jobs/searchresult.ashx?jl=640&bj=200300&sj=042
p2391
tp2392
a(VIT\u9879\u76ee\u6267\u884c/\u534f\u8c03\u4eba\u5458
p2393
V/jobs/searchresult.ashx?jl=640&bj=200300&sj=689
p2394
tp2395
a(V\u5176\u4ed6
p2396
V/jobs/searchresult.ashx?jl=640&bj=200300&sj=841
p2397
tp2398
as(V\u94f6\u884c
p2399
V/jobs/searchresult.ashx?jl=640&bj=2071000
p2400
tp2401
(lp2402
(V\u884c\u957f/\u526f\u884c\u957f
p2403
V/jobs/searchresult.ashx?jl=640&bj=2071000&sj=716
p2404
tp2405
a(V\u94f6\u884c\u7ecf\u7406/\u4e3b\u4efb
p2406
V/jobs/searchresult.ashx?jl=640&bj=2071000&sj=347
p2407
tp2408
a(V\u94f6\u884c\u5927\u5802\u7ecf\u7406
p2409
V/jobs/searchresult.ashx?jl=640&bj=2071000&sj=721
p2410
tp2411
a(V\u94f6\u884c\u5ba2\u6237\u603b\u76d1
p2412
V/jobs/searchresult.ashx?jl=640&bj=2071000&sj=887
p2413
tp2414
a(V\u94f6\u884c\u5ba2\u6237\u7ecf\u7406
p2415
V/jobs/searchresult.ashx?jl=640&bj=2071000&sj=718
p2416
tp2417
a(V\u94f6\u884c\u5ba2\u6237\u4e3b\u7ba1
p2418
V/jobs/searchresult.ashx?jl=640&bj=2071000&sj=888
p2419
tp2420
a(V\u94f6\u884c\u5ba2\u6237\u4ee3\u8868
p2421
V/jobs/searchresult.ashx?jl=640&bj=2071000&sj=889
p2422
tp2423
a(V\u94f6\u884c\u5ba2\u6237\u670d\u52a1
p2424
V/jobs/searchresult.ashx?jl=640&bj=2071000&sj=192
p2425
tp2426
a(V\u7efc\u5408\u4e1a\u52a1\u7ecf\u7406/\u4e3b\u7ba1
p2427
V/jobs/searchresult.ashx?jl=640&bj=2071000&sj=719
p2428
tp2429
a(V\u7efc\u5408\u4e1a\u52a1\u4e13\u5458/\u52a9\u7406
p2430
V/jobs/searchresult.ashx?jl=640&bj=2071000&sj=720
p2431
tp2432
a(V\u94f6\u884c\u4f1a\u8ba1/\u67dc\u5458
p2433
V/jobs/searchresult.ashx?jl=640&bj=2071000&sj=193
p2434
tp2435
a(V\u516c\u53f8\u4e1a\u52a1
p2436
V/jobs/searchresult.ashx?jl=640&bj=2071000&sj=572
p2437
tp2438
a(V\u4e2a\u4eba\u4e1a\u52a1
p2439
V/jobs/searchresult.ashx?jl=640&bj=2071000&sj=573
p2440
tp2441
a(V\u94f6\u884c\u5361/\u7535\u5b50\u94f6\u884c\u4e1a\u52a1\u63a8\u5e7f
p2442
V/jobs/searchresult.ashx?jl=640&bj=2071000&sj=571
p2443
tp2444
a(V\u4fe1\u8d37\u7ba1\u7406/\u8d44\u4fe1\u8bc4\u4f30/\u5206\u6790
p2445
V/jobs/searchresult.ashx?jl=640&bj=2071000&sj=194
p2446
tp2447
a(V\u4fe1\u5ba1\u6838\u67e5
p2448
V/jobs/searchresult.ashx?jl=640&bj=2071000&sj=725
p2449
tp2450
a(V\u5916\u6c47\u4ea4\u6613
p2451
V/jobs/searchresult.ashx?jl=640&bj=2071000&sj=717
p2452
tp2453
a(V\u8fdb\u51fa\u53e3/\u4fe1\u7528\u8bc1\u7ed3\u7b97
p2454
V/jobs/searchresult.ashx?jl=640&bj=2071000&sj=722
p2455
tp2456
a(V\u6e05\u7b97\u4eba\u5458
p2457
V/jobs/searchresult.ashx?jl=640&bj=2071000&sj=723
p2458
tp2459
a(V\u98ce\u9669\u63a7\u5236
p2460
V/jobs/searchresult.ashx?jl=640&bj=2071000&sj=724
p2461
tp2462
a(V\u4e2a\u4eba\u4e1a\u52a1\u90e8\u95e8\u7ecf\u7406/\u4e3b\u7ba1
p2463
V/jobs/searchresult.ashx?jl=640&bj=2071000&sj=2108
p2464
tp2465
a(V\u516c\u53f8\u4e1a\u52a1\u90e8\u95e8\u7ecf\u7406/\u4e3b\u7ba1
p2466
V/jobs/searchresult.ashx?jl=640&bj=2071000&sj=2109
p2467
tp2468
a(V\u9ad8\u7ea7\u5ba2\u6237\u7ecf\u7406/\u5ba2\u6237\u7ecf\u7406
p2469
V/jobs/searchresult.ashx?jl=640&bj=2071000&sj=2110
p2470
tp2471
a(V\u4fe1\u7528\u5361\u9500\u552e
p2472
V/jobs/searchresult.ashx?jl=640&bj=2071000&sj=2111
p2473
tp2474
a(V\u94f6\u884c\u67dc\u5458
p2475
V/jobs/searchresult.ashx?jl=640&bj=2071000&sj=2112
p2476
tp2477
a(V\u5176\u4ed6
p2478
V/jobs/searchresult.ashx?jl=640&bj=2071000&sj=574
p2479
tp2480
as(V\u9ad8\u7ea7\u7ba1\u7406
p2481
V/jobs/searchresult.ashx?jl=640&bj=1050000
p2482
tp2483
(lp2484
(V\u9996\u5e2d\u6267\u884c\u5b98CEO/\u603b\u88c1/\u603b\u7ecf\u7406
p2485
V/jobs/searchresult.ashx?jl=640&bj=1050000&sj=136
p2486
tp2487
a(V\u9996\u5e2d\u8fd0\u8425\u5b98COO
p2488
V/jobs/searchresult.ashx?jl=640&bj=1050000&sj=138
p2489
tp2490
a(V\u9996\u5e2d\u8d22\u52a1\u5b98CFO
p2491
V/jobs/searchresult.ashx?jl=640&bj=1050000&sj=139
p2492
tp2493
a(VCTO/CIO
p2494
V/jobs/searchresult.ashx?jl=640&bj=1050000&sj=137
p2495
tp2496
a(V\u526f\u603b\u88c1/\u526f\u603b\u7ecf\u7406
p2497
V/jobs/searchresult.ashx?jl=640&bj=1050000&sj=140
p2498
tp2499
a(V\u5206\u516c\u53f8/\u4ee3\u8868\u5904\u8d1f\u8d23\u4eba
p2500
V/jobs/searchresult.ashx?jl=640&bj=1050000&sj=141
p2501
tp2502
a(V\u90e8\u95e8/\u4e8b\u4e1a\u90e8\u7ba1\u7406
p2503
V/jobs/searchresult.ashx?jl=640&bj=1050000&sj=144
p2504
tp2505
a(V\u603b\u88c1\u52a9\u7406/\u603b\u7ecf\u7406\u52a9\u7406
p2506
V/jobs/searchresult.ashx?jl=640&bj=1050000&sj=142
p2507
tp2508
a(V\u603b\u7f16/\u526f\u603b\u7f16
p2509
V/jobs/searchresult.ashx?jl=640&bj=1050000&sj=870
p2510
tp2511
a(V\u884c\u957f/\u526f\u884c\u957f
p2512
V/jobs/searchresult.ashx?jl=640&bj=1050000&sj=907
p2513
tp2514
a(V\u5de5\u5382\u5382\u957f/\u526f\u5382\u957f
p2515
V/jobs/searchresult.ashx?jl=640&bj=1050000&sj=911
p2516
tp2517
a(V\u6821\u957f/\u526f\u6821\u957f
p2518
V/jobs/searchresult.ashx?jl=640&bj=1050000&sj=912
p2519
tp2520
a(V\u5408\u4f19\u4eba
p2521
V/jobs/searchresult.ashx?jl=640&bj=1050000&sj=143
p2522
tp2523
a(V\u529e\u4e8b\u5904\u9996\u5e2d\u4ee3\u8868
p2524
V/jobs/searchresult.ashx?jl=640&bj=1050000&sj=2001
p2525
tp2526
a(V\u6295\u8d44\u8005\u5173\u7cfb
p2527
V/jobs/searchresult.ashx?jl=640&bj=1050000&sj=2002
p2528
tp2529
a(V\u4f01\u4e1a\u79d8\u4e66/\u8463\u4e8b\u4f1a\u79d8\u4e66
p2530
V/jobs/searchresult.ashx?jl=640&bj=1050000&sj=2003
p2531
tp2532
a(V\u7b56\u7565\u53d1\u5c55\u603b\u76d1
p2533
V/jobs/searchresult.ashx?jl=640&bj=1050000&sj=2004
p2534
tp2535
a(V\u8fd0\u8425\u603b\u76d1
p2536
V/jobs/searchresult.ashx?jl=640&bj=1050000&sj=2005
p2537
tp2538
a(V\u5176\u4ed6
p2539
V/jobs/searchresult.ashx?jl=640&bj=1050000&sj=148
p2540
tp2541
as(V\u6280\u5de5/\u64cd\u4f5c\u5de5
p2542
V/jobs/searchresult.ashx?jl=640&bj=5004000
p2543
tp2544
(lp2545
(V\u8f66\u5e8a/\u78e8\u5e8a/\u94e3\u5e8a/\u51b2\u5e8a\u5de5
p2546
V/jobs/searchresult.ashx?jl=640&bj=5004000&sj=339
p2547
tp2548
a(V\u6a21\u5177\u5de5
p2549
V/jobs/searchresult.ashx?jl=640&bj=5004000&sj=343
p2550
tp2551
a(V\u94b3\u5de5/\u673a\u4fee\u5de5/\u94a3\u91d1\u5de5
p2552
V/jobs/searchresult.ashx?jl=640&bj=5004000&sj=338
p2553
tp2554
a(V\u7535\u710a\u5de5/\u94c6\u710a\u5de5
p2555
V/jobs/searchresult.ashx?jl=640&bj=5004000&sj=337
p2556
tp2557
a(V\u7535\u5de5
p2558
V/jobs/searchresult.ashx?jl=640&bj=5004000&sj=599
p2559
tp2560
a(V\u6c34\u5de5/\u6728\u5de5/\u6cb9\u6f06\u5de5
p2561
V/jobs/searchresult.ashx?jl=640&bj=5004000&sj=342
p2562
tp2563
a(V\u94f2\u8f66/\u53c9\u8f66\u5de5
p2564
V/jobs/searchresult.ashx?jl=640&bj=5004000&sj=341
p2565
tp2566
a(V\u7a7a\u8c03\u5de5/\u7535\u68af\u5de5/\u9505\u7089\u5de5
p2567
V/jobs/searchresult.ashx?jl=640&bj=5004000&sj=340
p2568
tp2569
a(V\u6c7d\u8f66\u7ef4\u4fee/\u4fdd\u517b
p2570
V/jobs/searchresult.ashx?jl=640&bj=5004000&sj=336
p2571
tp2572
a(V\u666e\u5de5/\u64cd\u4f5c\u5de5
p2573
V/jobs/searchresult.ashx?jl=640&bj=5004000&sj=344
p2574
tp2575
a(V\u6280\u5de5
p2576
V/jobs/searchresult.ashx?jl=640&bj=5004000&sj=2205
p2577
tp2578
a(V\u7ec4\u88c5\u5de5
p2579
V/jobs/searchresult.ashx?jl=640&bj=5004000&sj=2206
p2580
tp2581
a(V\u5305\u88c5\u5de5
p2582
V/jobs/searchresult.ashx?jl=640&bj=5004000&sj=2207
p2583
tp2584
a(V\u7535\u529b\u7ebf\u8def\u5de5
p2585
V/jobs/searchresult.ashx?jl=640&bj=5004000&sj=2208
p2586
tp2587
a(V\u62d6\u538b\u5de5
p2588
V/jobs/searchresult.ashx?jl=640&bj=5004000&sj=2209
p2589
tp2590
a(V\u4eea\u8868\u5de5
p2591
V/jobs/searchresult.ashx?jl=640&bj=5004000&sj=2210
p2592
tp2593
a(V\u7535\u9540\u5de5
p2594
V/jobs/searchresult.ashx?jl=640&bj=5004000&sj=2211
p2595
tp2596
a(V\u55b7\u5851\u5de5
p2597
V/jobs/searchresult.ashx?jl=640&bj=5004000&sj=2212
p2598
tp2599
a(V\u7535\u68af\u5de5
p2600
V/jobs/searchresult.ashx?jl=640&bj=5004000&sj=2213
p2601
tp2602
a(V\u540a\u8f66\u53f8\u673a/\u5361\u8f66\u53f8\u673a
p2603
V/jobs/searchresult.ashx?jl=640&bj=5004000&sj=2214
p2604
tp2605
a(V\u6d17\u8f66\u5de5
p2606
V/jobs/searchresult.ashx?jl=640&bj=5004000&sj=2215
p2607
tp2608
a(V\u6d17\u7897\u5de5
p2609
V/jobs/searchresult.ashx?jl=640&bj=5004000&sj=2216
p2610
tp2611
a(V\u74e6\u5de5
p2612
V/jobs/searchresult.ashx?jl=640&bj=5004000&sj=2217
p2613
tp2614
a(V\u4e07\u80fd\u5de5
p2615
V/jobs/searchresult.ashx?jl=640&bj=5004000&sj=2218
p2616
tp2617
a(V\u94a2\u7b4b\u5de5
p2618
V/jobs/searchresult.ashx?jl=640&bj=5004000&sj=2220
p2619
tp2620
a(V\u5b66\u5f92\u5de5
p2621
V/jobs/searchresult.ashx?jl=640&bj=5004000&sj=2221
p2622
tp2623
a(V\u5176\u4ed6
p2624
V/jobs/searchresult.ashx?jl=640&bj=5004000&sj=345
p2625
tp2626
as(V\u884c\u653f/\u540e\u52e4/\u6587\u79d8
p2627
V/jobs/searchresult.ashx?jl=640&bj=3010000
p2628
tp2629
(lp2630
(V\u884c\u653f\u603b\u76d1
p2631
V/jobs/searchresult.ashx?jl=640&bj=3010000&sj=328
p2632
tp2633
a(V\u884c\u653f\u7ecf\u7406/\u4e3b\u7ba1/\u529e\u516c\u5ba4\u4e3b\u4efb
p2634
V/jobs/searchresult.ashx?jl=640&bj=3010000&sj=114
p2635
tp2636
a(V\u884c\u653f\u4e13\u5458/\u52a9\u7406
p2637
V/jobs/searchresult.ashx?jl=640&bj=3010000&sj=115
p2638
tp2639
a(V\u52a9\u7406/\u79d8\u4e66/\u6587\u5458
p2640
V/jobs/searchresult.ashx?jl=640&bj=3010000&sj=116
p2641
tp2642
a(V\u524d\u53f0/\u603b\u673a/\u63a5\u5f85
p2643
V/jobs/searchresult.ashx?jl=640&bj=3010000&sj=117
p2644
tp2645
a(V\u6587\u6863/\u8d44\u6599\u7ba1\u7406
p2646
V/jobs/searchresult.ashx?jl=640&bj=3010000&sj=859
p2647
tp2648
a(V\u7535\u8111\u64cd\u4f5c/\u6253\u5b57/\u5f55\u5165\u5458
p2649
V/jobs/searchresult.ashx?jl=640&bj=3010000&sj=498
p2650
tp2651
a(V\u540e\u52e4\u4eba\u5458
p2652
V/jobs/searchresult.ashx?jl=640&bj=3010000&sj=119
p2653
tp2654
a(V\u515a\u5de5\u56e2\u5e72\u4e8b
p2655
V/jobs/searchresult.ashx?jl=640&bj=3010000&sj=2144
p2656
tp2657
a(V\u56fe\u4e66\u7ba1\u7406\u5458
p2658
V/jobs/searchresult.ashx?jl=640&bj=3010000&sj=2145
p2659
tp2660
a(V\u5185\u52e4\u4eba\u5458
p2661
V/jobs/searchresult.ashx?jl=640&bj=3010000&sj=2146
p2662
tp2663
a(V\u5176\u4ed6
p2664
V/jobs/searchresult.ashx?jl=640&bj=3010000&sj=329
p2665
tp2666
as(V\u70f9\u996a/\u6599\u7406/\u98df\u54c1\u7814\u53d1
p2667
V/jobs/searchresult.ashx?jl=640&bj=201100
p2668
tp2669
(lp2670
(V\u53a8\u5e08/\u9762\u70b9\u5e08
p2671
V/jobs/searchresult.ashx?jl=640&bj=201100&sj=275
p2672
tp2673
a(V\u98df\u54c1\u52a0\u5de5/\u5904\u7406
p2674
V/jobs/searchresult.ashx?jl=640&bj=201100&sj=635
p2675
tp2676
a(V\u8c03\u9152\u5e08/\u8336\u827a\u5e08/\u5496\u5561\u5e08
p2677
V/jobs/searchresult.ashx?jl=640&bj=201100&sj=369
p2678
tp2679
a(V\u8425\u517b\u5e08
p2680
V/jobs/searchresult.ashx?jl=640&bj=201100&sj=370
p2681
tp2682
a(V\u53a8\u5de5
p2683
V/jobs/searchresult.ashx?jl=640&bj=201100&sj=801
p2684
tp2685
a(V\u98df\u54c1/\u996e\u6599\u7814\u53d1
p2686
V/jobs/searchresult.ashx?jl=640&bj=201100&sj=596
p2687
tp2688
a(V\u98df\u54c1/\u996e\u6599\u68c0\u9a8c
p2689
V/jobs/searchresult.ashx?jl=640&bj=201100&sj=836
p2690
tp2691
a(V\u9910\u5385\u9886\u73ed
p2692
V/jobs/searchresult.ashx?jl=640&bj=201100&sj=2066
p2693
tp2694
a(V\u9910\u5385\u670d\u52a1\u5458
p2695
V/jobs/searchresult.ashx?jl=640&bj=201100&sj=2067
p2696
tp2697
a(V\u884c\u653f\u4e3b\u53a8
p2698
V/jobs/searchresult.ashx?jl=640&bj=201100&sj=2068
p2699
tp2700
a(V\u4e2d\u9910\u53a8\u5e08
p2701
V/jobs/searchresult.ashx?jl=640&bj=201100&sj=2069
p2702
tp2703
a(V\u897f\u9910\u53a8\u5e08
p2704
V/jobs/searchresult.ashx?jl=640&bj=201100&sj=2070
p2705
tp2706
a(V\u65e5\u5f0f\u53a8\u5e08
p2707
V/jobs/searchresult.ashx?jl=640&bj=201100&sj=2071
p2708
tp2709
a(V\u897f\u70b9\u5e08
p2710
V/jobs/searchresult.ashx?jl=640&bj=201100&sj=2072
p2711
tp2712
a(V\u53a8\u5e08\u52a9\u7406/\u5b66\u5f92
p2713
V/jobs/searchresult.ashx?jl=640&bj=201100&sj=2073
p2714
tp2715
a(V\u9001\u9910\u5458
p2716
V/jobs/searchresult.ashx?jl=640&bj=201100&sj=2074
p2717
tp2718
a(V\u4f20\u83dc\u5458
p2719
V/jobs/searchresult.ashx?jl=640&bj=201100&sj=2075
p2720
tp2721
a(V\u70e7\u70e4\u5e08
p2722
V/jobs/searchresult.ashx?jl=640&bj=201100&sj=2076
p2723
tp2724
a(V\u54c1\u9152\u5e08
p2725
V/jobs/searchresult.ashx?jl=640&bj=201100&sj=2077
p2726
tp2727
a(V\u6742\u5de5
p2728
V/jobs/searchresult.ashx?jl=640&bj=201100&sj=2078
p2729
tp2730
a(V\u5176\u4ed6
p2731
V/jobs/searchresult.ashx?jl=640&bj=201100&sj=837
p2732
tp2733
as(V\u623f\u5730\u4ea7\u5f00\u53d1/\u7ecf\u7eaa/\u4e2d\u4ecb
p2734
V/jobs/searchresult.ashx?jl=640&bj=141000
p2735
tp2736
(lp2737
(V\u623f\u5730\u4ea7\u9879\u76ee\u7b56\u5212\u7ecf\u7406/\u4e3b\u7ba1
p2738
V/jobs/searchresult.ashx?jl=640&bj=141000&sj=710
p2739
tp2740
a(V\u623f\u5730\u4ea7\u9879\u76ee\u7b56\u5212\u4e13\u5458/\u52a9\u7406
p2741
V/jobs/searchresult.ashx?jl=640&bj=141000&sj=351
p2742
tp2743
a(V\u623f\u5730\u4ea7\u9879\u76ee\u62db\u6295\u6807
p2744
V/jobs/searchresult.ashx?jl=640&bj=141000&sj=883
p2745
tp2746
a(V\u623f\u5730\u4ea7\u9879\u76ee\u5f00\u53d1\u62a5\u5efa
p2747
V/jobs/searchresult.ashx?jl=640&bj=141000&sj=701
p2748
tp2749
a(V\u623f\u5730\u4ea7\u9879\u76ee\u914d\u5957\u5de5\u7a0b\u5e08
p2750
V/jobs/searchresult.ashx?jl=640&bj=141000&sj=711
p2751
tp2752
a(V\u623f\u5730\u4ea7\u9500\u552e\u7ecf\u7406
p2753
V/jobs/searchresult.ashx?jl=640&bj=141000&sj=709
p2754
tp2755
a(V\u623f\u5730\u4ea7\u9500\u552e\u4e3b\u7ba1
p2756
V/jobs/searchresult.ashx?jl=640&bj=141000&sj=882
p2757
tp2758
a(V\u623f\u5730\u4ea7\u9500\u552e/\u7f6e\u4e1a\u987e\u95ee
p2759
V/jobs/searchresult.ashx?jl=640&bj=141000&sj=708
p2760
tp2761
a(V\u623f\u5730\u4ea7\u8bc4\u4f30
p2762
V/jobs/searchresult.ashx?jl=640&bj=141000&sj=567
p2763
tp2764
a(V\u623f\u5730\u4ea7\u4e2d\u4ecb/\u4ea4\u6613
p2765
V/jobs/searchresult.ashx?jl=640&bj=141000&sj=105
p2766
tp2767
a(V\u623f\u5730\u4ea7\u9879\u76ee\u7ba1\u7406
p2768
V/jobs/searchresult.ashx?jl=640&bj=141000&sj=566
p2769
tp2770
a(V\u623f\u5730\u4ea7\u8d44\u4ea7\u7ba1\u7406
p2771
V/jobs/searchresult.ashx?jl=640&bj=141000&sj=2028
p2772
tp2773
a(V\u76d1\u5bdf\u4eba\u5458
p2774
V/jobs/searchresult.ashx?jl=640&bj=141000&sj=2029
p2775
tp2776
a(V\u5730\u4ea7\u5e97\u957f/\u7ecf\u7406
p2777
V/jobs/searchresult.ashx?jl=640&bj=141000&sj=2030
p2778
tp2779
a(V\u623f\u5730\u4ea7\u5185\u52e4
p2780
V/jobs/searchresult.ashx?jl=640&bj=141000&sj=2031
p2781
tp2782
a(V\u623f\u5730\u4ea7\u5ba2\u670d
p2783
V/jobs/searchresult.ashx?jl=640&bj=141000&sj=2032
p2784
tp2785
a(V\u5176\u4ed6
p2786
V/jobs/searchresult.ashx?jl=640&bj=141000&sj=568
p2787
tp2788
as(V\u80fd\u6e90/\u77ff\u4ea7/\u5730\u8d28\u52d8\u67e5
p2789
V/jobs/searchresult.ashx?jl=640&bj=130000
p2790
tp2791
(lp2792
(V\u77f3\u6cb9/\u5929\u7136\u6c14\u6280\u672f\u4eba\u5458
p2793
V/jobs/searchresult.ashx?jl=640&bj=130000&sj=284
p2794
tp2795
a(V\u7a7a\u8c03/\u70ed\u80fd\u5de5\u7a0b\u5e08
p2796
V/jobs/searchresult.ashx?jl=640&bj=130000&sj=285
p2797
tp2798
a(V\u6838\u529b/\u706b\u529b\u5de5\u7a0b\u5e08
p2799
V/jobs/searchresult.ashx?jl=640&bj=130000&sj=290
p2800
tp2801
a(V\u6c34\u5229/\u6c34\u7535\u5de5\u7a0b\u5e08
p2802
V/jobs/searchresult.ashx?jl=640&bj=130000&sj=617
p2803
tp2804
a(V\u7535\u529b\u5de5\u7a0b\u5e08/\u6280\u672f\u5458
p2805
V/jobs/searchresult.ashx?jl=640&bj=130000&sj=286
p2806
tp2807
a(V\u5730\u8d28\u52d8\u67e5/\u9009\u77ff/\u91c7\u77ff
p2808
V/jobs/searchresult.ashx?jl=640&bj=130000&sj=372
p2809
tp2810
a(V\u80fd\u6e90/\u77ff\u4ea7\u9879\u76ee\u7ba1\u7406
p2811
V/jobs/searchresult.ashx?jl=640&bj=130000&sj=534
p2812
tp2813
a(V\u7535\u529b\u7cfb\u7edf\u7814\u53d1\u5de5\u7a0b\u5e08
p2814
V/jobs/searchresult.ashx?jl=640&bj=130000&sj=2020
p2815
tp2816
a(V\u7535\u529b\u7535\u5b50\u7814\u53d1\u5de5\u7a0b\u5e08
p2817
V/jobs/searchresult.ashx?jl=640&bj=130000&sj=2021
p2818
tp2819
a(V\u63a7\u5236\u4fdd\u62a4\u7814\u53d1\u5de5\u7a0b\u5e08
p2820
V/jobs/searchresult.ashx?jl=640&bj=130000&sj=2022
p2821
tp2822
a(V\u5176\u4ed6
p2823
V/jobs/searchresult.ashx?jl=640&bj=130000&sj=291
p2824
tp2825
as(V\u65c5\u6e38/\u5ea6\u5047/\u51fa\u5165\u5883\u670d\u52a1
p2826
V/jobs/searchresult.ashx?jl=640&bj=4040000
p2827
tp2828
(lp2829
(V\u65c5\u6e38\u4ea7\u54c1\u9500\u552e
p2830
V/jobs/searchresult.ashx?jl=640&bj=4040000&sj=799
p2831
tp2832
a(V\u65c5\u6e38\u987e\u95ee
p2833
V/jobs/searchresult.ashx?jl=640&bj=4040000&sj=530
p2834
tp2835
a(V\u5bfc\u6e38/\u7968\u52a1
p2836
V/jobs/searchresult.ashx?jl=640&bj=4040000&sj=282
p2837
tp2838
a(V\u65c5\u6e38\u8ba1\u5212\u8c03\u5ea6
p2839
V/jobs/searchresult.ashx?jl=640&bj=4040000&sj=531
p2840
tp2841
a(V\u65c5\u6e38\u4ea7\u54c1/\u7ebf\u8def\u7b56\u5212
p2842
V/jobs/searchresult.ashx?jl=640&bj=4040000&sj=897
p2843
tp2844
a(V\u7b7e\u8bc1\u4e1a\u52a1\u529e\u7406
p2845
V/jobs/searchresult.ashx?jl=640&bj=4040000&sj=800
p2846
tp2847
a(V\u6f5c\u6c34\u5458
p2848
V/jobs/searchresult.ashx?jl=640&bj=4040000&sj=2171
p2849
tp2850
a(V\u6d77\u5916\u6e38\u8ba1\u8c03
p2851
V/jobs/searchresult.ashx?jl=640&bj=4040000&sj=2172
p2852
tp2853
a(V\u6c34\u65cf\u9986\u8868\u6f14\u6f14\u5458
p2854
V/jobs/searchresult.ashx?jl=640&bj=4040000&sj=2173
p2855
tp2856
a(V\u5176\u4ed6
p2857
V/jobs/searchresult.ashx?jl=640&bj=4040000&sj=283
p2858
tp2859
as(V\u73af\u5883\u79d1\u5b66/\u73af\u4fdd
p2860
V/jobs/searchresult.ashx?jl=640&bj=2023100
p2861
tp2862
(lp2863
(V\u73af\u4fdd\u6280\u672f\u5de5\u7a0b\u5e08
p2864
V/jobs/searchresult.ashx?jl=640&bj=2023100&sj=380
p2865
tp2866
a(V\u73af\u5883\u8bc4\u4ef7\u5de5\u7a0b\u5e08
p2867
V/jobs/searchresult.ashx?jl=640&bj=2023100&sj=616
p2868
tp2869
a(V\u73af\u5883\u76d1\u6d4b\u5de5\u7a0b\u5e08
p2870
V/jobs/searchresult.ashx?jl=640&bj=2023100&sj=905
p2871
tp2872
a(V\u6c34\u5904\u7406\u5de5\u7a0b\u5e08
p2873
V/jobs/searchresult.ashx?jl=640&bj=2023100&sj=615
p2874
tp2875
a(V\u56fa\u5e9f\u5904\u7406\u5de5\u7a0b\u5e08
p2876
V/jobs/searchresult.ashx?jl=640&bj=2023100&sj=903
p2877
tp2878
a(V\u5e9f\u6c14\u5904\u7406\u5de5\u7a0b\u5e08
p2879
V/jobs/searchresult.ashx?jl=640&bj=2023100&sj=904
p2880
tp2881
a(V\u751f\u6001\u6cbb\u7406/\u89c4\u5212
p2882
V/jobs/searchresult.ashx?jl=640&bj=2023100&sj=266
p2883
tp2884
a(V\u73af\u5883\u7ba1\u7406/\u56ed\u6797\u666f\u533a\u4fdd\u62a4
p2885
V/jobs/searchresult.ashx?jl=640&bj=2023100&sj=379
p2886
tp2887
a(V\u5176\u4ed6
p2888
V/jobs/searchresult.ashx?jl=640&bj=2023100&sj=267
p2889
tp2890
as(VIT\u8fd0\u7ef4/\u6280\u672f\u652f\u6301
p2891
V/jobs/searchresult.ashx?jl=640&bj=200500
p2892
tp2893
(lp2894
(V\u4fe1\u606f\u6280\u672f\u7ecf\u7406/\u4e3b\u7ba1
p2895
V/jobs/searchresult.ashx?jl=640&bj=200500&sj=040
p2896
tp2897
a(V\u4fe1\u606f\u6280\u672f\u4e13\u5458
p2898
V/jobs/searchresult.ashx?jl=640&bj=200500&sj=041
p2899
tp2900
a(VIT\u6280\u672f\u652f\u6301/\u7ef4\u62a4\u7ecf\u7406
p2901
V/jobs/searchresult.ashx?jl=640&bj=200500&sj=058
p2902
tp2903
a(VIT\u6280\u672f\u652f\u6301/\u7ef4\u62a4\u5de5\u7a0b\u5e08
p2904
V/jobs/searchresult.ashx?jl=640&bj=200500&sj=315
p2905
tp2906
a(V\u7cfb\u7edf\u5de5\u7a0b\u5e08
p2907
V/jobs/searchresult.ashx?jl=640&bj=200500&sj=046
p2908
tp2909
a(V\u7cfb\u7edf\u7ba1\u7406\u5458
p2910
V/jobs/searchresult.ashx?jl=640&bj=200500&sj=051
p2911
tp2912
a(V\u7f51\u7edc\u5de5\u7a0b\u5e08
p2913
V/jobs/searchresult.ashx?jl=640&bj=200500&sj=055
p2914
tp2915
a(V\u7f51\u7edc\u7ba1\u7406\u5458
p2916
V/jobs/searchresult.ashx?jl=640&bj=200500&sj=388
p2917
tp2918
a(V\u7f51\u7edc\u4e0e\u4fe1\u606f\u5b89\u5168\u5de5\u7a0b\u5e08
p2919
V/jobs/searchresult.ashx?jl=640&bj=200500&sj=059
p2920
tp2921
a(V\u6570\u636e\u5e93\u7ba1\u7406\u5458
p2922
V/jobs/searchresult.ashx?jl=640&bj=200500&sj=389
p2923
tp2924
a(V\u8ba1\u7b97\u673a\u786c\u4ef6\u7ef4\u62a4\u5de5\u7a0b\u5e08
p2925
V/jobs/searchresult.ashx?jl=640&bj=200500&sj=678
p2926
tp2927
a(VERP\u5b9e\u65bd\u987e\u95ee
p2928
V/jobs/searchresult.ashx?jl=640&bj=200500&sj=551
p2929
tp2930
a(VIT\u6280\u672f\u6587\u5458/\u52a9\u7406
p2931
V/jobs/searchresult.ashx?jl=640&bj=200500&sj=690
p2932
tp2933
a(VIT\u6587\u6863\u5de5\u7a0b\u5e08
p2934
V/jobs/searchresult.ashx?jl=640&bj=200500&sj=699
p2935
tp2936
a(VHelpdesk
p2937
V/jobs/searchresult.ashx?jl=640&bj=200500&sj=698
p2938
tp2939
a(V\u5176\u4ed6
p2940
V/jobs/searchresult.ashx?jl=640&bj=200500&sj=840
p2941
tp2942
as(V\u4fdd\u9669
p2943
V/jobs/searchresult.ashx?jl=640&bj=7006000
p2944
tp2945
(lp2946
(V\u4fdd\u9669\u4e1a\u52a1\u7ba1\u7406
p2947
V/jobs/searchresult.ashx?jl=640&bj=7006000&sj=535
p2948
tp2949
a(V\u4fdd\u9669\u4ee3\u7406/\u7ecf\u7eaa\u4eba/\u5ba2\u6237\u7ecf\u7406
p2950
V/jobs/searchresult.ashx?jl=640&bj=7006000&sj=196
p2951
tp2952
a(V\u4fdd\u9669\u987e\u95ee/\u8d22\u52a1\u89c4\u5212\u5e08
p2953
V/jobs/searchresult.ashx?jl=640&bj=7006000&sj=537
p2954
tp2955
a(V\u4fdd\u9669\u4ea7\u54c1\u5f00\u53d1/\u9879\u76ee\u7b56\u5212
p2956
V/jobs/searchresult.ashx?jl=640&bj=7006000&sj=540
p2957
tp2958
a(V\u4fdd\u9669\u57f9\u8bad\u5e08
p2959
V/jobs/searchresult.ashx?jl=640&bj=7006000&sj=543
p2960
tp2961
a(V\u4fdd\u9669\u5951\u7ea6\u7ba1\u7406
p2962
V/jobs/searchresult.ashx?jl=640&bj=7006000&sj=545
p2963
tp2964
a(V\u6838\u4fdd\u7406\u8d54
p2965
V/jobs/searchresult.ashx?jl=640&bj=7006000&sj=197
p2966
tp2967
a(V\u6c7d\u8f66\u5b9a\u635f/\u8f66\u9669\u7406\u8d54
p2968
V/jobs/searchresult.ashx?jl=640&bj=7006000&sj=726
p2969
tp2970
a(V\u4fdd\u9669\u7cbe\u7b97\u5e08
p2971
V/jobs/searchresult.ashx?jl=640&bj=7006000&sj=348
p2972
tp2973
a(V\u5ba2\u6237\u670d\u52a1/\u7eed\u671f\u7ba1\u7406
p2974
V/jobs/searchresult.ashx?jl=640&bj=7006000&sj=541
p2975
tp2976
a(V\u4fdd\u9669\u5185\u52e4
p2977
V/jobs/searchresult.ashx?jl=640&bj=7006000&sj=539
p2978
tp2979
a(V\u4fdd\u9669\u9879\u76ee\u7ecf\u7406/\u4e3b\u7ba1
p2980
V/jobs/searchresult.ashx?jl=640&bj=7006000&sj=536
p2981
tp2982
a(V\u50a8\u5907\u7ecf\u7406\u4eba
p2983
V/jobs/searchresult.ashx?jl=640&bj=7006000&sj=544
p2984
tp2985
a(V\u7406\u8d22\u987e\u95ee/\u8d22\u52a1\u89c4\u5212\u5e08
p2986
V/jobs/searchresult.ashx?jl=640&bj=7006000&sj=2251
p2987
tp2988
a(V\u4fdd\u9669\u7535\u9500
p2989
V/jobs/searchresult.ashx?jl=640&bj=7006000&sj=2252
p2990
tp2991
a(V\u4fdd\u9669\u6838\u5b89
p2992
V/jobs/searchresult.ashx?jl=640&bj=7006000&sj=2253
p2993
tp2994
a(V\u5176\u4ed6
p2995
V/jobs/searchresult.ashx?jl=640&bj=7006000&sj=546
p2996
tp2997
as(V\u8bc1\u5238/\u671f\u8d27/\u6295\u8d44\u7ba1\u7406/\u670d\u52a1
p2998
V/jobs/searchresult.ashx?jl=640&bj=2070000
p2999
tp3000
(lp3001
(V\u8bc1\u5238\u603b\u76d1/\u90e8\u95e8\u7ecf\u7406
p3002
V/jobs/searchresult.ashx?jl=640&bj=2070000&sj=349
p3003
tp3004
a(V\u8bc1\u5238/\u671f\u8d27/\u5916\u6c47\u7ecf\u7eaa\u4eba
p3005
V/jobs/searchresult.ashx?jl=640&bj=2070000&sj=187
p3006
tp3007
a(V\u8bc1\u5238/\u6295\u8d44\u5ba2\u6237\u603b\u76d1
p3008
V/jobs/searchresult.ashx?jl=640&bj=2070000&sj=910
p3009
tp3010
a(V\u8bc1\u5238/\u6295\u8d44\u5ba2\u6237\u7ecf\u7406
p3011
V/jobs/searchresult.ashx?jl=640&bj=2070000&sj=191
p3012
tp3013
a(V\u8bc1\u5238/\u6295\u8d44\u5ba2\u6237\u4e3b\u7ba1
p3014
V/jobs/searchresult.ashx?jl=640&bj=2070000&sj=908
p3015
tp3016
a(V\u8bc1\u5238/\u6295\u8d44\u5ba2\u6237\u4ee3\u8868
p3017
V/jobs/searchresult.ashx?jl=640&bj=2070000&sj=909
p3018
tp3019
a(V\u8bc1\u5238\u5206\u6790/\u91d1\u878d\u7814\u7a76
p3020
V/jobs/searchresult.ashx?jl=640&bj=2070000&sj=575
p3021
tp3022
a(V\u6295\u8d44/\u7406\u8d22\u670d\u52a1
p3023
V/jobs/searchresult.ashx?jl=640&bj=2070000&sj=188
p3024
tp3025
a(V\u6295\u8d44\u94f6\u884c\u4e1a\u52a1
p3026
V/jobs/searchresult.ashx?jl=640&bj=2070000&sj=576
p3027
tp3028
a(V\u878d\u8d44\u603b\u76d1
p3029
V/jobs/searchresult.ashx?jl=640&bj=2070000&sj=346
p3030
tp3031
a(V\u878d\u8d44\u7ecf\u7406/\u4e3b\u7ba1
p3032
V/jobs/searchresult.ashx?jl=640&bj=2070000&sj=809
p3033
tp3034
a(V\u878d\u8d44\u4e13\u5458/\u52a9\u7406
p3035
V/jobs/searchresult.ashx?jl=640&bj=2070000&sj=810
p3036
tp3037
a(V\u80a1\u7968/\u671f\u8d27\u64cd\u76d8\u624b
p3038
V/jobs/searchresult.ashx?jl=640&bj=2070000&sj=577
p3039
tp3040
a(V\u8d44\u4ea7\u8bc4\u4f30
p3041
V/jobs/searchresult.ashx?jl=640&bj=2070000&sj=579
p3042
tp3043
a(V\u98ce\u9669\u7ba1\u7406/\u63a7\u5236/\u7a3d\u67e5
p3044
V/jobs/searchresult.ashx?jl=640&bj=2070000&sj=190
p3045
tp3046
a(V\u50a8\u5907\u7ecf\u7406\u4eba
p3047
V/jobs/searchresult.ashx?jl=640&bj=2070000&sj=198
p3048
tp3049
a(V\u8bc1\u5238/\u6295\u8d44\u9879\u76ee\u7ba1\u7406
p3050
V/jobs/searchresult.ashx?jl=640&bj=2070000&sj=468
p3051
tp3052
a(V\u91d1\u878d/\u7ecf\u6d4e\u7814\u7a76\u5458
p3053
V/jobs/searchresult.ashx?jl=640&bj=2070000&sj=2100
p3054
tp3055
a(V\u91d1\u878d\u4ea7\u54c1\u7ecf\u7406
p3056
V/jobs/searchresult.ashx?jl=640&bj=2070000&sj=2101
p3057
tp3058
a(V\u91d1\u878d\u4ea7\u54c1\u9500\u552e
p3059
V/jobs/searchresult.ashx?jl=640&bj=2070000&sj=2102
p3060
tp3061
a(V\u57fa\u91d1\u9879\u76ee\u7ecf\u7406
p3062
V/jobs/searchresult.ashx?jl=640&bj=2070000&sj=2103
p3063
tp3064
a(V\u91d1\u878d\u670d\u52a1\u7ecf\u7406
p3065
V/jobs/searchresult.ashx?jl=640&bj=2070000&sj=2104
p3066
tp3067
a(V\u6295\u8d44\u7ecf\u7406
p3068
V/jobs/searchresult.ashx?jl=640&bj=2070000&sj=2105
p3069
tp3070
a(V\u6295\u8d44\u94f6\u884c\u8d22\u52a1\u5206\u6790
p3071
V/jobs/searchresult.ashx?jl=640&bj=2070000&sj=2106
p3072
tp3073
a(V\u91d1\u878d\u79df\u8d41
p3074
V/jobs/searchresult.ashx?jl=640&bj=2070000&sj=2107
p3075
tp3076
a(V\u5176\u4ed6
p3077
V/jobs/searchresult.ashx?jl=640&bj=2070000&sj=199
p3078
tp3079
as(V\u533b\u9662/\u533b\u7597/\u62a4\u7406
p3080
V/jobs/searchresult.ashx?jl=640&bj=2051000
p3081
tp3082
(lp3083
(V\u533b\u7597\u7ba1\u7406\u4eba\u5458
p3084
V/jobs/searchresult.ashx?jl=640&bj=2051000&sj=228
p3085
tp3086
a(V\u7efc\u5408\u95e8\u8bca/\u5168\u79d1\u533b\u751f
p3087
V/jobs/searchresult.ashx?jl=640&bj=2051000&sj=229
p3088
tp3089
a(V\u5185\u79d1\u533b\u751f
p3090
V/jobs/searchresult.ashx?jl=640&bj=2051000&sj=642
p3091
tp3092
a(V\u5916\u79d1\u533b\u751f
p3093
V/jobs/searchresult.ashx?jl=640&bj=2051000&sj=643
p3094
tp3095
a(V\u513f\u79d1\u533b\u751f
p3096
V/jobs/searchresult.ashx?jl=640&bj=2051000&sj=644
p3097
tp3098
a(V\u7259\u79d1\u533b\u751f
p3099
V/jobs/searchresult.ashx?jl=640&bj=2051000&sj=645
p3100
tp3101
a(V\u7f8e\u5bb9\u6574\u5f62\u79d1\u533b\u751f
p3102
V/jobs/searchresult.ashx?jl=640&bj=2051000&sj=899
p3103
tp3104
a(V\u4e2d\u533b\u79d1\u533b\u751f
p3105
V/jobs/searchresult.ashx?jl=640&bj=2051000&sj=646
p3106
tp3107
a(V\u9ebb\u9189\u533b\u751f
p3108
V/jobs/searchresult.ashx?jl=640&bj=2051000&sj=647
p3109
tp3110
a(V\u5fc3\u7406\u533b\u751f
p3111
V/jobs/searchresult.ashx?jl=640&bj=2051000&sj=373
p3112
tp3113
a(V\u773c\u79d1\u533b\u751f/\u9a8c\u5149\u5e08
p3114
V/jobs/searchresult.ashx?jl=640&bj=2051000&sj=648
p3115
tp3116
a(V\u533b\u5b66\u5f71\u50cf/\u653e\u5c04\u79d1\u533b\u5e08
p3117
V/jobs/searchresult.ashx?jl=640&bj=2051000&sj=900
p3118
tp3119
a(V\u5316\u9a8c/\u68c0\u9a8c\u79d1\u533b\u5e08
p3120
V/jobs/searchresult.ashx?jl=640&bj=2051000&sj=374
p3121
tp3122
a(V\u836f\u623f\u7ba1\u7406/\u836f\u5242\u5e08
p3123
V/jobs/searchresult.ashx?jl=640&bj=2051000&sj=232
p3124
tp3125
a(V\u7406\u7597\u5e08
p3126
V/jobs/searchresult.ashx?jl=640&bj=2051000&sj=804
p3127
tp3128
a(V\u517d\u533b
p3129
V/jobs/searchresult.ashx?jl=640&bj=2051000&sj=898
p3130
tp3131
a(V\u62a4\u58eb/\u62a4\u7406\u4eba\u5458
p3132
V/jobs/searchresult.ashx?jl=640&bj=2051000&sj=397
p3133
tp3134
a(V\u8425\u517b\u5e08
p3135
V/jobs/searchresult.ashx?jl=640&bj=2051000&sj=649
p3136
tp3137
a(V\u9488\u7078/\u63a8\u62ff
p3138
V/jobs/searchresult.ashx?jl=640&bj=2051000&sj=375
p3139
tp3140
a(V\u9a8c\u5149\u5e08
p3141
V/jobs/searchresult.ashx?jl=640&bj=2051000&sj=2091
p3142
tp3143
a(V\u516c\u5171\u536b\u751f/\u75be\u75c5\u76d1\u63a7
p3144
V/jobs/searchresult.ashx?jl=640&bj=2051000&sj=2092
p3145
tp3146
a(V\u62a4\u7406\u4e3b\u4efb/\u62a4\u58eb\u957f
p3147
V/jobs/searchresult.ashx?jl=640&bj=2051000&sj=2093
p3148
tp3149
a(V\u9662\u957f
p3150
V/jobs/searchresult.ashx?jl=640&bj=2051000&sj=2094
p3151
tp3152
a(V\u4e13\u79d1\u533b\u751f
p3153
V/jobs/searchresult.ashx?jl=640&bj=2051000&sj=2095
p3154
tp3155
a(V\u5176\u4ed6
p3156
V/jobs/searchresult.ashx?jl=640&bj=2051000&sj=650
p3157
tp3158
as(V\u9500\u552e\u4e1a\u52a1
p3159
V/jobs/searchresult.ashx?jl=640&bj=4010200
p3160
tp3161
(lp3162
(V\u9500\u552e\u4ee3\u8868
p3163
V/jobs/searchresult.ashx?jl=640&bj=4010200&sj=006
p3164
tp3165
a(V\u5ba2\u6237\u4ee3\u8868
p3166
V/jobs/searchresult.ashx?jl=640&bj=4010200&sj=008
p3167
tp3168
a(V\u9500\u552e\u5de5\u7a0b\u5e08
p3169
V/jobs/searchresult.ashx?jl=640&bj=4010200&sj=009
p3170
tp3171
a(V\u6e20\u9053/\u5206\u9500\u4e13\u5458
p3172
V/jobs/searchresult.ashx?jl=640&bj=4010200&sj=007
p3173
tp3174
a(V\u533a\u57df\u9500\u552e\u4e13\u5458/\u52a9\u7406
p3175
V/jobs/searchresult.ashx?jl=640&bj=4010200&sj=925
p3176
tp3177
a(V\u4e1a\u52a1\u62d3\u5c55\u4e13\u5458/\u52a9\u7406
p3178
V/jobs/searchresult.ashx?jl=640&bj=4010200&sj=933
p3179
tp3180
a(V\u5927\u5ba2\u6237\u9500\u552e\u4ee3\u8868
p3181
V/jobs/searchresult.ashx?jl=640&bj=4010200&sj=926
p3182
tp3183
a(V\u7535\u8bdd\u9500\u552e
p3184
V/jobs/searchresult.ashx?jl=640&bj=4010200&sj=011
p3185
tp3186
a(V\u7f51\u7edc/\u5728\u7ebf\u9500\u552e
p3187
V/jobs/searchresult.ashx?jl=640&bj=4010200&sj=924
p3188
tp3189
a(V\u56e2\u8d2d\u4e1a\u52a1\u5458
p3190
V/jobs/searchresult.ashx?jl=640&bj=4010200&sj=452
p3191
tp3192
a(V\u9500\u552e\u4e1a\u52a1\u8ddf\u5355
p3193
V/jobs/searchresult.ashx?jl=640&bj=4010200&sj=927
p3194
tp3195
a(V\u533b\u836f\u4ee3\u8868
p3196
V/jobs/searchresult.ashx?jl=640&bj=4010200&sj=010
p3197
tp3198
a(V\u7ecf\u9500\u5546
p3199
V/jobs/searchresult.ashx?jl=640&bj=4010200&sj=2149
p3200
tp3201
a(V\u62db\u5546\u7ecf\u7406
p3202
V/jobs/searchresult.ashx?jl=640&bj=4010200&sj=2150
p3203
tp3204
a(V\u62db\u5546\u4e3b\u7ba1
p3205
V/jobs/searchresult.ashx?jl=640&bj=4010200&sj=2151
p3206
tp3207
a(V\u62db\u5546\u4e13\u5458
p3208
V/jobs/searchresult.ashx?jl=640&bj=4010200&sj=2152
p3209
tp3210
a(V\u4f1a\u7c4d\u987e\u95ee
p3211
V/jobs/searchresult.ashx?jl=640&bj=4010200&sj=2153
p3212
tp3213
a(V\u5176\u4ed6
p3214
V/jobs/searchresult.ashx?jl=640&bj=4010200&sj=018
p3215
tp3216
as(V\u793e\u533a/\u5c45\u6c11/\u5bb6\u653f\u670d\u52a1
p3217
V/jobs/searchresult.ashx?jl=640&bj=6270000
p3218
tp3219
(lp3220
(V\u4fdd\u5b89\u7ecf\u7406
p3221
V/jobs/searchresult.ashx?jl=640&bj=6270000&sj=805
p3222
tp3223
a(V\u4fdd\u5b89
p3224
V/jobs/searchresult.ashx?jl=640&bj=6270000&sj=104
p3225
tp3226
a(V\u5bb6\u653f\u4eba\u5458
p3227
V/jobs/searchresult.ashx?jl=640&bj=6270000&sj=308
p3228
tp3229
a(V\u5a5a\u793c/\u5e86\u5178\u7b56\u5212\u670d\u52a1
p3230
V/jobs/searchresult.ashx?jl=640&bj=6270000&sj=611
p3231
tp3232
a(V\u5ba0\u7269\u62a4\u7406\u548c\u7f8e\u5bb9
p3233
V/jobs/searchresult.ashx?jl=640&bj=6270000&sj=233
p3234
tp3235
a(V\u4fdd\u59c6/\u6bcd\u5a74\u62a4\u7406
p3236
V/jobs/searchresult.ashx?jl=640&bj=6270000&sj=901
p3237
tp3238
a(V\u642c\u8fd0\u5de5
p3239
V/jobs/searchresult.ashx?jl=640&bj=6270000&sj=806
p3240
tp3241
a(V\u4fdd\u6d01
p3242
V/jobs/searchresult.ashx?jl=640&bj=6270000&sj=651
p3243
tp3244
a(V\u949f\u70b9\u5de5
p3245
V/jobs/searchresult.ashx?jl=640&bj=6270000&sj=2227
p3246
tp3247
a(V\u6708\u5ac2
p3248
V/jobs/searchresult.ashx?jl=640&bj=6270000&sj=2228
p3249
tp3250
a(V\u5bb6\u7535\u7ef4\u4fee
p3251
V/jobs/searchresult.ashx?jl=640&bj=6270000&sj=2229
p3252
tp3253
a(V\u5176\u4ed6
p3254
V/jobs/searchresult.ashx?jl=640&bj=6270000&sj=310
p3255
tp3256
as(V\u9879\u76ee\u7ba1\u7406/\u9879\u76ee\u534f\u8c03
p3257
V/jobs/searchresult.ashx?jl=640&bj=201300
p3258
tp3259
(lp3260
(V\u9879\u76ee\u603b\u76d1
p3261
V/jobs/searchresult.ashx?jl=640&bj=201300&sj=813
p3262
tp3263
a(V\u9879\u76ee\u7ecf\u7406/\u9879\u76ee\u4e3b\u7ba1
p3264
V/jobs/searchresult.ashx?jl=640&bj=201300&sj=814
p3265
tp3266
a(V\u9879\u76ee\u4e13\u5458/\u52a9\u7406
p3267
V/jobs/searchresult.ashx?jl=640&bj=201300&sj=815
p3268
tp3269
a(V\u5e7f\u544a/\u4f1a\u5c55\u9879\u76ee\u7ba1\u7406
p3270
V/jobs/searchresult.ashx?jl=640&bj=201300&sj=816
p3271
tp3272
a(VIT\u9879\u76ee\u603b\u76d1
p3273
V/jobs/searchresult.ashx?jl=640&bj=201300&sj=817
p3274
tp3275
a(VIT\u9879\u76ee\u7ecf\u7406/\u4e3b\u7ba1
p3276
V/jobs/searchresult.ashx?jl=640&bj=201300&sj=818
p3277
tp3278
a(VIT\u9879\u76ee\u6267\u884c/\u534f\u8c03\u4eba\u5458
p3279
V/jobs/searchresult.ashx?jl=640&bj=201300&sj=819
p3280
tp3281
a(V\u901a\u4fe1\u9879\u76ee\u7ba1\u7406
p3282
V/jobs/searchresult.ashx?jl=640&bj=201300&sj=820
p3283
tp3284
a(V\u623f\u5730\u4ea7\u9879\u76ee\u914d\u5957\u5de5\u7a0b\u5e08
p3285
V/jobs/searchresult.ashx?jl=640&bj=201300&sj=829
p3286
tp3287
a(V\u623f\u5730\u4ea7\u9879\u76ee\u7ba1\u7406
p3288
V/jobs/searchresult.ashx?jl=640&bj=201300&sj=830
p3289
tp3290
a(V\u8bc1\u5238/\u6295\u8d44\u9879\u76ee\u7ba1\u7406
p3291
V/jobs/searchresult.ashx?jl=640&bj=201300&sj=834
p3292
tp3293
a(V\u4fdd\u9669\u9879\u76ee\u7ecf\u7406/\u4e3b\u7ba1
p3294
V/jobs/searchresult.ashx?jl=640&bj=201300&sj=831
p3295
tp3296
a(V\u751f\u4ea7\u9879\u76ee\u7ecf\u7406/\u4e3b\u7ba1
p3297
V/jobs/searchresult.ashx?jl=640&bj=201300&sj=821
p3298
tp3299
a(V\u751f\u4ea7\u9879\u76ee\u5de5\u7a0b\u5e08
p3300
V/jobs/searchresult.ashx?jl=640&bj=201300&sj=822
p3301
tp3302
a(V\u6c7d\u8f66\u5de5\u7a0b\u9879\u76ee\u7ba1\u7406
p3303
V/jobs/searchresult.ashx?jl=640&bj=201300&sj=823
p3304
tp3305
a(V\u7535\u5b50/\u7535\u5668\u9879\u76ee\u7ba1\u7406
p3306
V/jobs/searchresult.ashx?jl=640&bj=201300&sj=824
p3307
tp3308
a(V\u670d\u88c5/\u7eba\u7ec7/\u76ae\u9769\u9879\u76ee\u7ba1\u7406
p3309
V/jobs/searchresult.ashx?jl=640&bj=201300&sj=825
p3310
tp3311
a(V\u533b\u836f\u9879\u76ee\u7ba1\u7406
p3312
V/jobs/searchresult.ashx?jl=640&bj=201300&sj=826
p3313
tp3314
a(V\u5316\u5de5\u9879\u76ee\u7ba1\u7406
p3315
V/jobs/searchresult.ashx?jl=640&bj=201300&sj=827
p3316
tp3317
a(V\u7269\u6d41/\u4ed3\u50a8\u9879\u76ee\u7ba1\u7406
p3318
V/jobs/searchresult.ashx?jl=640&bj=201300&sj=828
p3319
tp3320
a(V\u54a8\u8be2\u9879\u76ee\u7ba1\u7406
p3321
V/jobs/searchresult.ashx?jl=640&bj=201300&sj=832
p3322
tp3323
a(V\u80fd\u6e90/\u77ff\u4ea7\u9879\u76ee\u7ba1\u7406
p3324
V/jobs/searchresult.ashx?jl=640&bj=201300&sj=833
p3325
tp3326
a(V\u9879\u76ee\u8ba1\u5212\u5408\u7ea6\u4e13\u5458
p3327
V/jobs/searchresult.ashx?jl=640&bj=201300&sj=2079
p3328
tp3329
a(V\u9879\u76ee\u62db\u6295\u6807
p3330
V/jobs/searchresult.ashx?jl=640&bj=201300&sj=2080
p3331
tp3332
a(V\u5176\u4ed6
p3333
V/jobs/searchresult.ashx?jl=640&bj=201300&sj=835
p3334
tp3335
as.